
/home/sanchuan/Downloads/sgxrace_final/enclave_binaries/rust_edp_sdk/enclave:     file format elf64-x86-64


Disassembly of section .text:

000000000000e940 <_ZN3std10sys_common9backtrace28__rust_begin_short_backtrace17hd0f3a949f6689fa9E>:
    e940:	48 83 ec 28          	sub    $0x28,%rsp
    e944:	0f ae e8             	lfence 
    e947:	48 89 7c 24 10       	mov    %rdi,0x10(%rsp)
    e94c:	e8 df 01 00 00       	callq  eb30 <_ZN4core3ops8function6FnOnce9call_once17hf91643a2c151bbdbE>
    e951:	e8 2a 01 00 00       	callq  ea80 <_ZN4core4hint9black_box17hddf2ab002555e234E>
    e956:	0f ae e8             	lfence 
    e959:	eb 00                	jmp    e95b <_ZN3std10sys_common9backtrace28__rust_begin_short_backtrace17hd0f3a949f6689fa9E+0x1b>
    e95b:	48 83 c4 28          	add    $0x28,%rsp
    e95f:	58                   	pop    %rax
    e960:	0f ae e8             	lfence 
    e963:	ff e0                	jmpq   *%rax
    e965:	0f ae e8             	lfence 
    e968:	eb 00                	jmp    e96a <_ZN3std10sys_common9backtrace28__rust_begin_short_backtrace17hd0f3a949f6689fa9E+0x2a>
    e96a:	0f ae e8             	lfence 
    e96d:	48 8b 7c 24 18       	mov    0x18(%rsp),%rdi
    e972:	e8 89 92 01 00       	callq  27c00 <_Unwind_Resume>
    e977:	0f ae e8             	lfence 
    e97a:	0f 0b                	ud2    
    e97c:	48 89 c1             	mov    %rax,%rcx
    e97f:	89 d0                	mov    %edx,%eax
    e981:	0f ae e8             	lfence 
    e984:	48 89 4c 24 18       	mov    %rcx,0x18(%rsp)
    e989:	0f ae e8             	lfence 
    e98c:	89 44 24 20          	mov    %eax,0x20(%rsp)
    e990:	0f ae e8             	lfence 
    e993:	eb d0                	jmp    e965 <_ZN3std10sys_common9backtrace28__rust_begin_short_backtrace17hd0f3a949f6689fa9E+0x25>
    e995:	cc                   	int3   
    e996:	cc                   	int3   
    e997:	cc                   	int3   
    e998:	cc                   	int3   
    e999:	cc                   	int3   
    e99a:	cc                   	int3   
    e99b:	cc                   	int3   
    e99c:	cc                   	int3   
    e99d:	cc                   	int3   
    e99e:	cc                   	int3   
    e99f:	cc                   	int3   

000000000000e9a0 <__llvm_lvi_thunk_r11>:
    e9a0:	0f ae e8             	lfence 
    e9a3:	41 ff e3             	jmpq   *%r11
    e9a6:	cc                   	int3   
    e9a7:	cc                   	int3   
    e9a8:	cc                   	int3   
    e9a9:	cc                   	int3   
    e9aa:	cc                   	int3   
    e9ab:	cc                   	int3   
    e9ac:	cc                   	int3   
    e9ad:	cc                   	int3   
    e9ae:	cc                   	int3   
    e9af:	cc                   	int3   

000000000000e9b0 <_ZN11hello_world4main17h5cac0cd72df1e4faE>:
    e9b0:	48 83 ec 38          	sub    $0x38,%rsp
    e9b4:	48 8d 35 b5 4c 02 00 	lea    0x24cb5(%rip),%rsi        # 33670 <_ZN9libunwind13DwarfFDECacheINS_17LocalAddressSpaceEE10_bufferEndE+0x8>
    e9bb:	48 8d 0d ce 61 ff ff 	lea    -0x9e32(%rip),%rcx        # 4b90 <__rustc_debug_gdb_scripts_section__+0x58>
    e9c2:	31 c0                	xor    %eax,%eax
    e9c4:	41 89 c0             	mov    %eax,%r8d
    e9c7:	48 8d 7c 24 08       	lea    0x8(%rsp),%rdi
    e9cc:	ba 01 00 00 00       	mov    $0x1,%edx
    e9d1:	e8 2a 02 00 00       	callq  ec00 <_ZN4core3fmt9Arguments6new_v117hbf399e43dbb37087E>
    e9d6:	48 8d 7c 24 08       	lea    0x8(%rsp),%rdi
    e9db:	e8 40 92 00 00       	callq  17c20 <_ZN3std2io5stdio6_print17h4db28fc2bc93d208E>
    e9e0:	48 83 c4 38          	add    $0x38,%rsp
    e9e4:	58                   	pop    %rax
    e9e5:	0f ae e8             	lfence 
    e9e8:	ff e0                	jmpq   *%rax
    e9ea:	cc                   	int3   
    e9eb:	cc                   	int3   
    e9ec:	cc                   	int3   
    e9ed:	cc                   	int3   
    e9ee:	cc                   	int3   
    e9ef:	cc                   	int3   

000000000000e9f0 <main>:
    e9f0:	0f ae e8             	lfence 
    e9f3:	50                   	push   %rax
    e9f4:	48 89 f2             	mov    %rsi,%rdx
    e9f7:	0f ae e8             	lfence 
    e9fa:	48 8d 05 37 61 ff ff 	lea    -0x9ec9(%rip),%rax        # 4b38 <__rustc_debug_gdb_scripts_section__>
    ea01:	0f ae e8             	lfence 
    ea04:	8a 00                	mov    (%rax),%al
    ea06:	48 63 f7             	movslq %edi,%rsi
    ea09:	48 8d 3d a0 ff ff ff 	lea    -0x60(%rip),%rdi        # e9b0 <_ZN11hello_world4main17h5cac0cd72df1e4faE>
    ea10:	e8 4b 01 00 00       	callq  eb60 <_ZN3std2rt10lang_start17h8208039a9d5e14b5E>
    ea15:	0f ae e8             	lfence 
    ea18:	59                   	pop    %rcx
    ea19:	59                   	pop    %rcx
    ea1a:	0f ae e8             	lfence 
    ea1d:	ff e1                	jmpq   *%rcx
    ea1f:	cc                   	int3   

000000000000ea20 <_ZN54_$LT$$LP$$RP$$u20$as$u20$std..process..Termination$GT$6report17hb049b5a42fbd6676E>:
    ea20:	48 83 ec 18          	sub    $0x18,%rsp
    ea24:	31 ff                	xor    %edi,%edi
    ea26:	e8 25 00 00 00       	callq  ea50 <_ZN68_$LT$std..process..ExitCode$u20$as$u20$std..process..Termination$GT$6report17h461b86440ceba728E>
    ea2b:	0f ae e8             	lfence 
    ea2e:	89 44 24 0c          	mov    %eax,0xc(%rsp)
    ea32:	0f ae e8             	lfence 
    ea35:	8b 44 24 0c          	mov    0xc(%rsp),%eax
    ea39:	48 83 c4 18          	add    $0x18,%rsp
    ea3d:	59                   	pop    %rcx
    ea3e:	0f ae e8             	lfence 
    ea41:	ff e1                	jmpq   *%rcx
    ea43:	cc                   	int3   
    ea44:	cc                   	int3   
    ea45:	cc                   	int3   
    ea46:	cc                   	int3   
    ea47:	cc                   	int3   
    ea48:	cc                   	int3   
    ea49:	cc                   	int3   
    ea4a:	cc                   	int3   
    ea4b:	cc                   	int3   
    ea4c:	cc                   	int3   
    ea4d:	cc                   	int3   
    ea4e:	cc                   	int3   
    ea4f:	cc                   	int3   

000000000000ea50 <_ZN68_$LT$std..process..ExitCode$u20$as$u20$std..process..Termination$GT$6report17h461b86440ceba728E>:
    ea50:	0f ae e8             	lfence 
    ea53:	50                   	push   %rax
    ea54:	40 88 f8             	mov    %dil,%al
    ea57:	24 01                	and    $0x1,%al
    ea59:	0f ae e8             	lfence 
    ea5c:	88 44 24 07          	mov    %al,0x7(%rsp)
    ea60:	48 8d 7c 24 07       	lea    0x7(%rsp),%rdi
    ea65:	e8 56 1e 01 00       	callq  208c0 <_ZN3std3sys3sgx7process8ExitCode6as_i3217h6f43862410775923E>
    ea6a:	0f ae e8             	lfence 
    ea6d:	89 04 24             	mov    %eax,(%rsp)
    ea70:	0f ae e8             	lfence 
    ea73:	8b 04 24             	mov    (%rsp),%eax
    ea76:	0f ae e8             	lfence 
    ea79:	59                   	pop    %rcx
    ea7a:	59                   	pop    %rcx
    ea7b:	0f ae e8             	lfence 
    ea7e:	ff e1                	jmpq   *%rcx

000000000000ea80 <_ZN4core4hint9black_box17hddf2ab002555e234E>:
    ea80:	48 8d 44 24 f8       	lea    -0x8(%rsp),%rax
    ea85:	0f ae e8             	lfence 
    ea88:	58                   	pop    %rax
    ea89:	0f ae e8             	lfence 
    ea8c:	ff e0                	jmpq   *%rax
    ea8e:	cc                   	int3   
    ea8f:	cc                   	int3   

000000000000ea90 <_ZN4core3ops8function6FnOnce40call_once$u7b$$u7b$vtable.shim$u7d$$u7d$17h3bab78cd50905157E>:
    ea90:	48 83 ec 18          	sub    $0x18,%rsp
    ea94:	0f ae e8             	lfence 
    ea97:	48 89 7c 24 10       	mov    %rdi,0x10(%rsp)
    ea9c:	0f ae e8             	lfence 
    ea9f:	48 8b 3f             	mov    (%rdi),%rdi
    eaa2:	e8 19 00 00 00       	callq  eac0 <_ZN4core3ops8function6FnOnce9call_once17h9b2b69009baa407bE>
    eaa7:	0f ae e8             	lfence 
    eaaa:	89 44 24 04          	mov    %eax,0x4(%rsp)
    eaae:	0f ae e8             	lfence 
    eab1:	8b 44 24 04          	mov    0x4(%rsp),%eax
    eab5:	48 83 c4 18          	add    $0x18,%rsp
    eab9:	59                   	pop    %rcx
    eaba:	0f ae e8             	lfence 
    eabd:	ff e1                	jmpq   *%rcx
    eabf:	cc                   	int3   

000000000000eac0 <_ZN4core3ops8function6FnOnce9call_once17h9b2b69009baa407bE>:
    eac0:	48 83 ec 28          	sub    $0x28,%rsp
    eac4:	0f ae e8             	lfence 
    eac7:	48 89 7c 24 08       	mov    %rdi,0x8(%rsp)
    eacc:	48 8d 7c 24 08       	lea    0x8(%rsp),%rdi
    ead1:	e8 ea 00 00 00       	callq  ebc0 <_ZN3std2rt10lang_start28_$u7b$$u7b$closure$u7d$$u7d$17h739dfbcac4d27bbbE>
    ead6:	89 c1                	mov    %eax,%ecx
    ead8:	0f ae e8             	lfence 
    eadb:	89 4c 24 04          	mov    %ecx,0x4(%rsp)
    eadf:	0f ae e8             	lfence 
    eae2:	eb 00                	jmp    eae4 <_ZN4core3ops8function6FnOnce9call_once17h9b2b69009baa407bE+0x24>
    eae4:	0f ae e8             	lfence 
    eae7:	eb 00                	jmp    eae9 <_ZN4core3ops8function6FnOnce9call_once17h9b2b69009baa407bE+0x29>
    eae9:	0f ae e8             	lfence 
    eaec:	8b 44 24 04          	mov    0x4(%rsp),%eax
    eaf0:	48 83 c4 28          	add    $0x28,%rsp
    eaf4:	59                   	pop    %rcx
    eaf5:	0f ae e8             	lfence 
    eaf8:	ff e1                	jmpq   *%rcx
    eafa:	0f ae e8             	lfence 
    eafd:	eb 00                	jmp    eaff <_ZN4core3ops8function6FnOnce9call_once17h9b2b69009baa407bE+0x3f>
    eaff:	0f ae e8             	lfence 
    eb02:	48 8b 7c 24 18       	mov    0x18(%rsp),%rdi
    eb07:	e8 f4 90 01 00       	callq  27c00 <_Unwind_Resume>
    eb0c:	0f ae e8             	lfence 
    eb0f:	0f 0b                	ud2    
    eb11:	48 89 c1             	mov    %rax,%rcx
    eb14:	89 d0                	mov    %edx,%eax
    eb16:	0f ae e8             	lfence 
    eb19:	48 89 4c 24 18       	mov    %rcx,0x18(%rsp)
    eb1e:	0f ae e8             	lfence 
    eb21:	89 44 24 20          	mov    %eax,0x20(%rsp)
    eb25:	0f ae e8             	lfence 
    eb28:	eb d0                	jmp    eafa <_ZN4core3ops8function6FnOnce9call_once17h9b2b69009baa407bE+0x3a>
    eb2a:	cc                   	int3   
    eb2b:	cc                   	int3   
    eb2c:	cc                   	int3   
    eb2d:	cc                   	int3   
    eb2e:	cc                   	int3   
    eb2f:	cc                   	int3   

000000000000eb30 <_ZN4core3ops8function6FnOnce9call_once17hf91643a2c151bbdbE>:
    eb30:	48 83 ec 18          	sub    $0x18,%rsp
    eb34:	49 89 fb             	mov    %rdi,%r11
    eb37:	0f ae e8             	lfence 
    eb3a:	4c 89 5c 24 10       	mov    %r11,0x10(%rsp)
    eb3f:	e8 5c fe ff ff       	callq  e9a0 <__llvm_lvi_thunk_r11>
    eb44:	48 83 c4 18          	add    $0x18,%rsp
    eb48:	58                   	pop    %rax
    eb49:	0f ae e8             	lfence 
    eb4c:	ff e0                	jmpq   *%rax
    eb4e:	cc                   	int3   
    eb4f:	cc                   	int3   

000000000000eb50 <_ZN4core3ptr85drop_in_place$LT$std..rt..lang_start$LT$$LP$$RP$$GT$..$u7b$$u7b$closure$u7d$$u7d$$GT$17h17bf8399e4682c6dE>:
    eb50:	0f ae e8             	lfence 
    eb53:	48 89 7c 24 f8       	mov    %rdi,-0x8(%rsp)
    eb58:	58                   	pop    %rax
    eb59:	0f ae e8             	lfence 
    eb5c:	ff e0                	jmpq   *%rax
    eb5e:	cc                   	int3   
    eb5f:	cc                   	int3   

000000000000eb60 <_ZN3std2rt10lang_start17h8208039a9d5e14b5E>:
    eb60:	48 83 ec 28          	sub    $0x28,%rsp
    eb64:	48 89 d1             	mov    %rdx,%rcx
    eb67:	48 89 f2             	mov    %rsi,%rdx
    eb6a:	0f ae e8             	lfence 
    eb6d:	48 89 7c 24 10       	mov    %rdi,0x10(%rsp)
    eb72:	0f ae e8             	lfence 
    eb75:	48 89 54 24 18       	mov    %rdx,0x18(%rsp)
    eb7a:	0f ae e8             	lfence 
    eb7d:	48 89 4c 24 20       	mov    %rcx,0x20(%rsp)
    eb82:	0f ae e8             	lfence 
    eb85:	48 89 7c 24 08       	mov    %rdi,0x8(%rsp)
    eb8a:	48 8d 7c 24 08       	lea    0x8(%rsp),%rdi
    eb8f:	48 8d 35 ea 4a 02 00 	lea    0x24aea(%rip),%rsi        # 33680 <_ZN9libunwind13DwarfFDECacheINS_17LocalAddressSpaceEE10_bufferEndE+0x18>
    eb96:	e8 65 e1 00 00       	callq  1cd00 <_ZN3std2rt19lang_start_internal17h3038fbeea917e93bE>
    eb9b:	0f ae e8             	lfence 
    eb9e:	48 89 04 24          	mov    %rax,(%rsp)
    eba2:	0f ae e8             	lfence 
    eba5:	48 8b 04 24          	mov    (%rsp),%rax
    eba9:	48 83 c4 28          	add    $0x28,%rsp
    ebad:	59                   	pop    %rcx
    ebae:	0f ae e8             	lfence 
    ebb1:	ff e1                	jmpq   *%rcx
    ebb3:	cc                   	int3   
    ebb4:	cc                   	int3   
    ebb5:	cc                   	int3   
    ebb6:	cc                   	int3   
    ebb7:	cc                   	int3   
    ebb8:	cc                   	int3   
    ebb9:	cc                   	int3   
    ebba:	cc                   	int3   
    ebbb:	cc                   	int3   
    ebbc:	cc                   	int3   
    ebbd:	cc                   	int3   
    ebbe:	cc                   	int3   
    ebbf:	cc                   	int3   

000000000000ebc0 <_ZN3std2rt10lang_start28_$u7b$$u7b$closure$u7d$$u7d$17h739dfbcac4d27bbbE>:
    ebc0:	48 83 ec 18          	sub    $0x18,%rsp
    ebc4:	0f ae e8             	lfence 
    ebc7:	48 89 7c 24 10       	mov    %rdi,0x10(%rsp)
    ebcc:	0f ae e8             	lfence 
    ebcf:	48 8b 3f             	mov    (%rdi),%rdi
    ebd2:	e8 69 fd ff ff       	callq  e940 <_ZN3std10sys_common9backtrace28__rust_begin_short_backtrace17hd0f3a949f6689fa9E>
    ebd7:	e8 44 fe ff ff       	callq  ea20 <_ZN54_$LT$$LP$$RP$$u20$as$u20$std..process..Termination$GT$6report17hb049b5a42fbd6676E>
    ebdc:	0f ae e8             	lfence 
    ebdf:	89 44 24 0c          	mov    %eax,0xc(%rsp)
    ebe3:	0f ae e8             	lfence 
    ebe6:	8b 44 24 0c          	mov    0xc(%rsp),%eax
    ebea:	48 83 c4 18          	add    $0x18,%rsp
    ebee:	59                   	pop    %rcx
    ebef:	0f ae e8             	lfence 
    ebf2:	ff e1                	jmpq   *%rcx
    ebf4:	cc                   	int3   
    ebf5:	cc                   	int3   
    ebf6:	cc                   	int3   
    ebf7:	cc                   	int3   
    ebf8:	cc                   	int3   
    ebf9:	cc                   	int3   
    ebfa:	cc                   	int3   
    ebfb:	cc                   	int3   
    ebfc:	cc                   	int3   
    ebfd:	cc                   	int3   
    ebfe:	cc                   	int3   
    ebff:	cc                   	int3   

000000000000ec00 <_ZN4core3fmt9Arguments6new_v117hbf399e43dbb37087E>:
    ec00:	48 89 f8             	mov    %rdi,%rax
    ec03:	0f ae e8             	lfence 
    ec06:	48 89 74 24 e0       	mov    %rsi,-0x20(%rsp)
    ec0b:	0f ae e8             	lfence 
    ec0e:	48 89 54 24 e8       	mov    %rdx,-0x18(%rsp)
    ec13:	0f ae e8             	lfence 
    ec16:	48 89 4c 24 f0       	mov    %rcx,-0x10(%rsp)
    ec1b:	0f ae e8             	lfence 
    ec1e:	4c 89 44 24 f8       	mov    %r8,-0x8(%rsp)
    ec23:	0f ae e8             	lfence 
    ec26:	48 c7 44 24 d0 00 00 	movq   $0x0,-0x30(%rsp)
    ec2d:	00 00 
    ec2f:	0f ae e8             	lfence 
    ec32:	48 89 37             	mov    %rsi,(%rdi)
    ec35:	0f ae e8             	lfence 
    ec38:	48 89 57 08          	mov    %rdx,0x8(%rdi)
    ec3c:	0f ae e8             	lfence 
    ec3f:	48 8b 74 24 d0       	mov    -0x30(%rsp),%rsi
    ec44:	0f ae e8             	lfence 
    ec47:	48 8b 54 24 d8       	mov    -0x28(%rsp),%rdx
    ec4c:	0f ae e8             	lfence 
    ec4f:	48 89 77 10          	mov    %rsi,0x10(%rdi)
    ec53:	0f ae e8             	lfence 
    ec56:	48 89 57 18          	mov    %rdx,0x18(%rdi)
    ec5a:	0f ae e8             	lfence 
    ec5d:	48 89 4f 20          	mov    %rcx,0x20(%rdi)
    ec61:	0f ae e8             	lfence 
    ec64:	4c 89 47 28          	mov    %r8,0x28(%rdi)
    ec68:	59                   	pop    %rcx
    ec69:	0f ae e8             	lfence 
    ec6c:	ff e1                	jmpq   *%rcx
    ec6e:	cc                   	int3   
    ec6f:	cc                   	int3   

000000000000ec70 <__rust_alloc>:
    ec70:	e9 1b ca 00 00       	jmpq   1b690 <__rdl_alloc>
    ec75:	cc                   	int3   
    ec76:	cc                   	int3   
    ec77:	cc                   	int3   
    ec78:	cc                   	int3   
    ec79:	cc                   	int3   
    ec7a:	cc                   	int3   
    ec7b:	cc                   	int3   
    ec7c:	cc                   	int3   
    ec7d:	cc                   	int3   
    ec7e:	cc                   	int3   
    ec7f:	cc                   	int3   

000000000000ec80 <__rust_dealloc>:
    ec80:	e9 9b ca 00 00       	jmpq   1b720 <__rdl_dealloc>
    ec85:	cc                   	int3   
    ec86:	cc                   	int3   
    ec87:	cc                   	int3   
    ec88:	cc                   	int3   
    ec89:	cc                   	int3   
    ec8a:	cc                   	int3   
    ec8b:	cc                   	int3   
    ec8c:	cc                   	int3   
    ec8d:	cc                   	int3   
    ec8e:	cc                   	int3   
    ec8f:	cc                   	int3   

000000000000ec90 <__rust_realloc>:
    ec90:	e9 1b cb 00 00       	jmpq   1b7b0 <__rdl_realloc>
    ec95:	cc                   	int3   
    ec96:	cc                   	int3   
    ec97:	cc                   	int3   
    ec98:	cc                   	int3   
    ec99:	cc                   	int3   
    ec9a:	cc                   	int3   
    ec9b:	cc                   	int3   
    ec9c:	cc                   	int3   
    ec9d:	cc                   	int3   
    ec9e:	cc                   	int3   
    ec9f:	cc                   	int3   

000000000000eca0 <__rust_alloc_error_handler>:
    eca0:	e9 4b df 01 00       	jmpq   2cbf0 <__rg_oom>
    eca5:	cc                   	int3   
    eca6:	cc                   	int3   
    eca7:	cc                   	int3   

000000000000eca8 <sgx_entry>:
    eca8:	65 48 89 0c 25 30 00 	mov    %rcx,%gs:0x30
    ecaf:	00 00 
    ecb1:	65 48 89 24 25 28 00 	mov    %rsp,%gs:0x28
    ecb8:	00 00 
    ecba:	65 48 89 2c 25 38 00 	mov    %rbp,%gs:0x38
    ecc1:	00 00 
    ecc3:	65 4c 89 24 25 40 00 	mov    %r12,%gs:0x40
    ecca:	00 00 
    eccc:	65 4c 89 2c 25 48 00 	mov    %r13,%gs:0x48
    ecd3:	00 00 
    ecd5:	65 4c 89 34 25 50 00 	mov    %r14,%gs:0x50
    ecdc:	00 00 
    ecde:	65 4c 89 3c 25 58 00 	mov    %r15,%gs:0x58
    ece5:	00 00 
    ece7:	65 48 89 1c 25 68 00 	mov    %rbx,%gs:0x68
    ecee:	00 00 
    ecf0:	65 0f ae 1c 25 0c 00 	stmxcsr %gs:0xc
    ecf7:	00 00 
    ecf9:	65 d9 3c 25 0a 00 00 	fnstcw %gs:0xa
    ed00:	00 
    ed01:	f6 05 08 5f ff ff ff 	testb  $0xff,-0xa0f8(%rip)        # 4c10 <DEBUG>
    ed08:	0f ae e8             	lfence 
    ed0b:	74 09                	je     ed16 <sgx_entry+0x6e>
    ed0d:	65 4c 89 14 25 20 00 	mov    %r10,%gs:0x20
    ed14:	00 00 
    ed16:	49 89 d2             	mov    %rdx,%r10
    ed19:	48 c7 c0 ff ff ff ff 	mov    $0xffffffffffffffff,%rax
    ed20:	48 c7 c2 ff ff ff ff 	mov    $0xffffffffffffffff,%rdx
    ed27:	0f ae 2d 92 5e ff ff 	xrstor -0xa16e(%rip)        # 4bc0 <__rustc_debug_gdb_scripts_section__+0x88>
    ed2e:	0f ae e8             	lfence 
    ed31:	4c 89 d2             	mov    %r10,%rdx
    ed34:	65 4c 8b 1c 25 10 00 	mov    %gs:0x10,%r11
    ed3b:	00 00 
    ed3d:	0f ae e8             	lfence 
    ed40:	4d 85 db             	test   %r11,%r11
    ed43:	0f 85 af 01 00 00    	jne    eef8 <usercall+0x45>
    ed49:	65 48 8b 24 25 00 00 	mov    %gs:0x0,%rsp
    ed50:	00 00 
    ed52:	0f ae e8             	lfence 
    ed55:	65 0f ba 2c 25 08 00 	btsl   $0x1,%gs:0x8
    ed5c:	00 00 01 
    ed5f:	0f ae e8             	lfence 
    ed62:	72 6a                	jb     edce <sgx_entry+0x126>
    ed64:	48 8d 05 95 12 ff ff 	lea    -0xed6b(%rip),%rax        # 0 <IMAGE_BASE>
    ed6b:	48 01 c4             	add    %rax,%rsp
    ed6e:	65 48 89 24 25 00 00 	mov    %rsp,%gs:0x0
    ed75:	00 00 
    ed77:	9c                   	pushfq 
    ed78:	48 81 24 24 ff fb fb 	andq   $0xfffffffffffbfbff,(%rsp)
    ed7f:	ff 
    ed80:	0f ae e8             	lfence 
    ed83:	9d                   	popfq  
    ed84:	0f ae e8             	lfence 
    ed87:	0f ba 25 89 46 02 00 	btl    $0x0,0x24689(%rip)        # 33418 <DW.ref.rust_eh_personality+0x8>
    ed8e:	00 
    ed8f:	0f ae e8             	lfence 
    ed92:	0f 82 12 01 00 00    	jb     eeaa <sgx_entry+0x202>
    ed98:	48 89 fb             	mov    %rdi,%rbx
    ed9b:	49 89 f4             	mov    %rsi,%r12
    ed9e:	49 89 d5             	mov    %rdx,%r13
    eda1:	4d 89 c6             	mov    %r8,%r14
    eda4:	4d 89 cf             	mov    %r9,%r15
    eda7:	bf 01 00 00 00       	mov    $0x1,%edi
    edac:	65 66 23 3c 25 08 00 	and    %gs:0x8,%di
    edb3:	00 00 
    edb5:	0f ae e8             	lfence 
    edb8:	e8 53 ff 00 00       	callq  1ed10 <tcs_init>
    edbd:	48 89 df             	mov    %rbx,%rdi
    edc0:	4c 89 e6             	mov    %r12,%rsi
    edc3:	4c 89 ea             	mov    %r13,%rdx
    edc6:	4d 89 f0             	mov    %r14,%r8
    edc9:	4d 89 f9             	mov    %r15,%r9
    edcc:	eb 21                	jmp    edef <sgx_entry+0x147>
    edce:	9c                   	pushfq 
    edcf:	48 81 24 24 ff fb fb 	andq   $0xfffffffffffbfbff,(%rsp)
    edd6:	ff 
    edd7:	0f ae e8             	lfence 
    edda:	9d                   	popfq  
    eddb:	0f ae e8             	lfence 
    edde:	0f ba 25 32 46 02 00 	btl    $0x0,0x24632(%rip)        # 33418 <DW.ref.rust_eh_personality+0x8>
    ede5:	00 
    ede6:	0f ae e8             	lfence 
    ede9:	0f 82 bb 00 00 00    	jb     eeaa <sgx_entry+0x202>
    edef:	b9 01 00 00 00       	mov    $0x1,%ecx
    edf4:	65 66 23 0c 25 08 00 	and    %gs:0x8,%cx
    edfb:	00 00 
    edfd:	0f ae e8             	lfence 
    ee00:	e8 5b 00 01 00       	callq  1ee60 <entry>
    ee05:	48 89 c6             	mov    %rax,%rsi
    ee08:	48 31 ff             	xor    %rdi,%rdi
    ee0b:	4d 31 c0             	xor    %r8,%r8
    ee0e:	4d 31 c9             	xor    %r9,%r9
    ee11:	4d 31 d2             	xor    %r10,%r10
    ee14:	4d 31 db             	xor    %r11,%r11
    ee17:	48 89 d1             	mov    %rdx,%rcx
    ee1a:	48 c7 c0 ff ff ff ff 	mov    $0xffffffffffffffff,%rax
    ee21:	48 89 c2             	mov    %rax,%rdx
    ee24:	0f ae 2d 95 5d ff ff 	xrstor -0xa26b(%rip)        # 4bc0 <__rustc_debug_gdb_scripts_section__+0x88>
    ee2b:	0f ae e8             	lfence 
    ee2e:	48 89 ca             	mov    %rcx,%rdx
    ee31:	6a 00                	pushq  $0x0
    ee33:	9d                   	popfq  
    ee34:	0f ae e8             	lfence 
    ee37:	65 4c 8b 24 25 40 00 	mov    %gs:0x40,%r12
    ee3e:	00 00 
    ee40:	0f ae e8             	lfence 
    ee43:	65 4c 8b 2c 25 48 00 	mov    %gs:0x48,%r13
    ee4a:	00 00 
    ee4c:	0f ae e8             	lfence 
    ee4f:	65 4c 8b 34 25 50 00 	mov    %gs:0x50,%r14
    ee56:	00 00 
    ee58:	0f ae e8             	lfence 
    ee5b:	65 4c 8b 3c 25 58 00 	mov    %gs:0x58,%r15
    ee62:	00 00 
    ee64:	0f ae e8             	lfence 
    ee67:	65 48 8b 1c 25 30 00 	mov    %gs:0x30,%rbx
    ee6e:	00 00 
    ee70:	0f ae e8             	lfence 
    ee73:	65 48 8b 24 25 28 00 	mov    %gs:0x28,%rsp
    ee7a:	00 00 
    ee7c:	0f ae e8             	lfence 
    ee7f:	65 48 8b 2c 25 38 00 	mov    %gs:0x38,%rbp
    ee86:	00 00 
    ee88:	0f ae e8             	lfence 
    ee8b:	65 d9 2c 25 0a 00 00 	fldcw  %gs:0xa
    ee92:	00 
    ee93:	0f ae e8             	lfence 
    ee96:	65 0f ae 14 25 0c 00 	ldmxcsr %gs:0xc
    ee9d:	00 00 
    ee9f:	0f ae e8             	lfence 
    eea2:	b8 04 00 00 00       	mov    $0x4,%eax
    eea7:	0f 01 d7             	enclu  
    eeaa:	48 83 cc 08          	or     $0x8,%rsp
    eeae:	e9 8d 0b 01 00       	jmpq   1fa40 <abort_reentry>

000000000000eeb3 <usercall>:
    eeb3:	48 85 c9             	test   %rcx,%rcx
    eeb6:	75 02                	jne    eeba <usercall+0x7>
    eeb8:	eb 13                	jmp    eecd <usercall+0x1a>
    eeba:	c6 05 57 45 02 00 01 	movb   $0x1,0x24557(%rip)        # 33418 <DW.ref.rust_eh_personality+0x8>
    eec1:	f6 05 48 5d ff ff ff 	testb  $0xff,-0xa2b8(%rip)        # 4c10 <DEBUG>
    eec8:	0f ae e8             	lfence 
    eecb:	74 20                	je     eeed <usercall+0x3a>
    eecd:	41 57                	push   %r15
    eecf:	41 56                	push   %r14
    eed1:	41 55                	push   %r13
    eed3:	41 54                	push   %r12
    eed5:	55                   	push   %rbp
    eed6:	53                   	push   %rbx
    eed7:	48 83 ec 08          	sub    $0x8,%rsp
    eedb:	9b d9 7c 24 04       	fstcw  0x4(%rsp)
    eee0:	0f ae 1c 24          	stmxcsr (%rsp)
    eee4:	65 48 89 24 25 10 00 	mov    %rsp,%gs:0x10
    eeeb:	00 00 
    eeed:	4d 31 d2             	xor    %r10,%r10
    eef0:	4d 31 db             	xor    %r11,%r11
    eef3:	e9 1f ff ff ff       	jmpq   ee17 <sgx_entry+0x16f>
    eef8:	65 48 c7 04 25 10 00 	movq   $0x0,%gs:0x10
    eeff:	00 00 00 00 00 00 
    ef05:	4c 89 dc             	mov    %r11,%rsp
    ef08:	0f ae 14 24          	ldmxcsr (%rsp)
    ef0c:	0f ae e8             	lfence 
    ef0f:	d9 6c 24 04          	fldcw  0x4(%rsp)
    ef13:	0f ae e8             	lfence 
    ef16:	48 83 c4 08          	add    $0x8,%rsp
    ef1a:	9c                   	pushfq 
    ef1b:	48 81 24 24 ff fb fb 	andq   $0xfffffffffffbfbff,(%rsp)
    ef22:	ff 
    ef23:	0f ae e8             	lfence 
    ef26:	9d                   	popfq  
    ef27:	0f ae e8             	lfence 
    ef2a:	0f ba 25 e6 44 02 00 	btl    $0x0,0x244e6(%rip)        # 33418 <DW.ref.rust_eh_personality+0x8>
    ef31:	00 
    ef32:	0f ae e8             	lfence 
    ef35:	0f 82 6f ff ff ff    	jb     eeaa <sgx_entry+0x202>
    ef3b:	5b                   	pop    %rbx
    ef3c:	0f ae e8             	lfence 
    ef3f:	5d                   	pop    %rbp
    ef40:	0f ae e8             	lfence 
    ef43:	41 5c                	pop    %r12
    ef45:	0f ae e8             	lfence 
    ef48:	41 5d                	pop    %r13
    ef4a:	0f ae e8             	lfence 
    ef4d:	41 5e                	pop    %r14
    ef4f:	0f ae e8             	lfence 
    ef52:	41 5f                	pop    %r15
    ef54:	0f ae e8             	lfence 
    ef57:	48 89 f0             	mov    %rsi,%rax
    ef5a:	41 5b                	pop    %r11
    ef5c:	0f ae e8             	lfence 
    ef5f:	0f ae e8             	lfence 
    ef62:	41 ff e3             	jmpq   *%r11

000000000000ef65 <get_tcs_addr>:
    ef65:	65 48 8b 04 25 68 00 	mov    %gs:0x68,%rax
    ef6c:	00 00 
    ef6e:	0f ae e8             	lfence 
    ef71:	41 5b                	pop    %r11
    ef73:	0f ae e8             	lfence 
    ef76:	0f ae e8             	lfence 
    ef79:	41 ff e3             	jmpq   *%r11

000000000000ef7c <get_tls_ptr>:
    ef7c:	65 48 8b 04 25 60 00 	mov    %gs:0x60,%rax
    ef83:	00 00 
    ef85:	0f ae e8             	lfence 
    ef88:	41 5b                	pop    %r11
    ef8a:	0f ae e8             	lfence 
    ef8d:	0f ae e8             	lfence 
    ef90:	41 ff e3             	jmpq   *%r11

000000000000ef93 <set_tls_ptr>:
    ef93:	65 48 89 3c 25 60 00 	mov    %rdi,%gs:0x60
    ef9a:	00 00 
    ef9c:	41 5b                	pop    %r11
    ef9e:	0f ae e8             	lfence 
    efa1:	0f ae e8             	lfence 
    efa4:	41 ff e3             	jmpq   *%r11

000000000000efa7 <take_debug_panic_buf_ptr>:
    efa7:	48 31 c0             	xor    %rax,%rax
    efaa:	65 48 87 04 25 20 00 	xchg   %rax,%gs:0x20
    efb1:	00 00 
    efb3:	0f ae e8             	lfence 
    efb6:	41 5b                	pop    %r11
    efb8:	0f ae e8             	lfence 
    efbb:	0f ae e8             	lfence 
    efbe:	41 ff e3             	jmpq   *%r11
    efc1:	cc                   	int3   
    efc2:	cc                   	int3   
    efc3:	cc                   	int3   
    efc4:	cc                   	int3   
    efc5:	cc                   	int3   
    efc6:	cc                   	int3   
    efc7:	cc                   	int3   
    efc8:	cc                   	int3   
    efc9:	cc                   	int3   
    efca:	cc                   	int3   
    efcb:	cc                   	int3   
    efcc:	cc                   	int3   
    efcd:	cc                   	int3   
    efce:	cc                   	int3   
    efcf:	cc                   	int3   

000000000000efd0 <_ZN36_$LT$T$u20$as$u20$core..any..Any$GT$7type_id17h2897ec50d6258867E>:
    efd0:	48 b8 7d 10 b2 e0 19 	movabs $0x31e6ef19e0b2107d,%rax
    efd7:	ef e6 31 
    efda:	59                   	pop    %rcx
    efdb:	0f ae e8             	lfence 
    efde:	ff e1                	jmpq   *%rcx

000000000000efe0 <_ZN36_$LT$T$u20$as$u20$core..any..Any$GT$7type_id17h9239284a85b47c94E>:
    efe0:	48 b8 f4 bc c7 ec 1e 	movabs $0x7ef2a91eecc7bcf4,%rax
    efe7:	a9 f2 7e 
    efea:	59                   	pop    %rcx
    efeb:	0f ae e8             	lfence 
    efee:	ff e1                	jmpq   *%rcx

000000000000eff0 <_ZN36_$LT$T$u20$as$u20$core..any..Any$GT$7type_id17ha6eb3c28f0c195e4E>:
    eff0:	48 b8 69 65 f5 4e fe 	movabs $0xbd9e97fe4ef56569,%rax
    eff7:	97 9e bd 
    effa:	59                   	pop    %rcx
    effb:	0f ae e8             	lfence 
    effe:	ff e1                	jmpq   *%rcx

000000000000f000 <_ZN42_$LT$$RF$T$u20$as$u20$core..fmt..Debug$GT$3fmt17h31ceecbe1207f099E>:
    f000:	41 56                	push   %r14
    f002:	53                   	push   %rbx
    f003:	50                   	push   %rax
    f004:	0f ae e8             	lfence 
    f007:	48 89 f3             	mov    %rsi,%rbx
    f00a:	4c 8b 37             	mov    (%rdi),%r14
    f00d:	48 89 f7             	mov    %rsi,%rdi
    f010:	e8 9b 04 02 00       	callq  2f4b0 <_ZN4core3fmt9Formatter15debug_lower_hex17hb86af077381a7eb0E>
    f015:	84 c0                	test   %al,%al
    f017:	74 12                	je     f02b <_ZN42_$LT$$RF$T$u20$as$u20$core..fmt..Debug$GT$3fmt17h31ceecbe1207f099E+0x2b>
    f019:	4c 89 f7             	mov    %r14,%rdi
    f01c:	48 89 de             	mov    %rbx,%rsi
    f01f:	48 83 c4 08          	add    $0x8,%rsp
    f023:	5b                   	pop    %rbx
    f024:	41 5e                	pop    %r14
    f026:	e9 75 23 02 00       	jmpq   313a0 <_ZN4core3fmt3num52_$LT$impl$u20$core..fmt..LowerHex$u20$for$u20$i8$GT$3fmt17h498e20956ce0d237E>
    f02b:	48 89 df             	mov    %rbx,%rdi
    f02e:	e8 9d 04 02 00       	callq  2f4d0 <_ZN4core3fmt9Formatter15debug_upper_hex17hb88c2d73c93c156eE>
    f033:	4c 89 f7             	mov    %r14,%rdi
    f036:	48 89 de             	mov    %rbx,%rsi
    f039:	48 83 c4 08          	add    $0x8,%rsp
    f03d:	84 c0                	test   %al,%al
    f03f:	74 08                	je     f049 <_ZN42_$LT$$RF$T$u20$as$u20$core..fmt..Debug$GT$3fmt17h31ceecbe1207f099E+0x49>
    f041:	5b                   	pop    %rbx
    f042:	41 5e                	pop    %r14
    f044:	e9 f7 23 02 00       	jmpq   31440 <_ZN4core3fmt3num52_$LT$impl$u20$core..fmt..UpperHex$u20$for$u20$i8$GT$3fmt17h1d40a2749d5326e3E>
    f049:	5b                   	pop    %rbx
    f04a:	41 5e                	pop    %r14
    f04c:	e9 4f 29 02 00       	jmpq   319a0 <_ZN4core3fmt3num3imp51_$LT$impl$u20$core..fmt..Display$u20$for$u20$u8$GT$3fmt17hb2b401d33c7ff095E>
    f051:	cc                   	int3   
    f052:	cc                   	int3   
    f053:	cc                   	int3   
    f054:	cc                   	int3   
    f055:	cc                   	int3   
    f056:	cc                   	int3   
    f057:	cc                   	int3   
    f058:	cc                   	int3   
    f059:	cc                   	int3   
    f05a:	cc                   	int3   
    f05b:	cc                   	int3   
    f05c:	cc                   	int3   
    f05d:	cc                   	int3   
    f05e:	cc                   	int3   
    f05f:	cc                   	int3   

000000000000f060 <_ZN42_$LT$$RF$T$u20$as$u20$core..fmt..Debug$GT$3fmt17h6e02dfa76ec98d2aE>:
    f060:	41 56                	push   %r14
    f062:	53                   	push   %rbx
    f063:	50                   	push   %rax
    f064:	0f ae e8             	lfence 
    f067:	48 89 f3             	mov    %rsi,%rbx
    f06a:	4c 8b 37             	mov    (%rdi),%r14
    f06d:	48 89 f7             	mov    %rsi,%rdi
    f070:	e8 3b 04 02 00       	callq  2f4b0 <_ZN4core3fmt9Formatter15debug_lower_hex17hb86af077381a7eb0E>
    f075:	84 c0                	test   %al,%al
    f077:	74 12                	je     f08b <_ZN42_$LT$$RF$T$u20$as$u20$core..fmt..Debug$GT$3fmt17h6e02dfa76ec98d2aE+0x2b>
    f079:	4c 89 f7             	mov    %r14,%rdi
    f07c:	48 89 de             	mov    %rbx,%rsi
    f07f:	48 83 c4 08          	add    $0x8,%rsp
    f083:	5b                   	pop    %rbx
    f084:	41 5e                	pop    %r14
    f086:	e9 95 25 02 00       	jmpq   31620 <_ZN4core3fmt3num53_$LT$impl$u20$core..fmt..LowerHex$u20$for$u20$i64$GT$3fmt17h753d8d8064acba52E>
    f08b:	48 89 df             	mov    %rbx,%rdi
    f08e:	e8 3d 04 02 00       	callq  2f4d0 <_ZN4core3fmt9Formatter15debug_upper_hex17hb88c2d73c93c156eE>
    f093:	4c 89 f7             	mov    %r14,%rdi
    f096:	48 89 de             	mov    %rbx,%rsi
    f099:	48 83 c4 08          	add    $0x8,%rsp
    f09d:	84 c0                	test   %al,%al
    f09f:	74 08                	je     f0a9 <_ZN42_$LT$$RF$T$u20$as$u20$core..fmt..Debug$GT$3fmt17h6e02dfa76ec98d2aE+0x49>
    f0a1:	5b                   	pop    %rbx
    f0a2:	41 5e                	pop    %r14
    f0a4:	e9 17 26 02 00       	jmpq   316c0 <_ZN4core3fmt3num53_$LT$impl$u20$core..fmt..UpperHex$u20$for$u20$i64$GT$3fmt17hf709a8165b6edb6dE>
    f0a9:	5b                   	pop    %rbx
    f0aa:	41 5e                	pop    %r14
    f0ac:	e9 3f 2d 02 00       	jmpq   31df0 <_ZN4core3fmt3num3imp52_$LT$impl$u20$core..fmt..Display$u20$for$u20$u64$GT$3fmt17h1db720bd8483b12cE>
    f0b1:	cc                   	int3   
    f0b2:	cc                   	int3   
    f0b3:	cc                   	int3   
    f0b4:	cc                   	int3   
    f0b5:	cc                   	int3   
    f0b6:	cc                   	int3   
    f0b7:	cc                   	int3   
    f0b8:	cc                   	int3   
    f0b9:	cc                   	int3   
    f0ba:	cc                   	int3   
    f0bb:	cc                   	int3   
    f0bc:	cc                   	int3   
    f0bd:	cc                   	int3   
    f0be:	cc                   	int3   
    f0bf:	cc                   	int3   

000000000000f0c0 <_ZN42_$LT$$RF$T$u20$as$u20$core..fmt..Debug$GT$3fmt17h76ded60b3d19d310E>:
    f0c0:	41 56                	push   %r14
    f0c2:	53                   	push   %rbx
    f0c3:	50                   	push   %rax
    f0c4:	0f ae e8             	lfence 
    f0c7:	48 89 f3             	mov    %rsi,%rbx
    f0ca:	4c 8b 37             	mov    (%rdi),%r14
    f0cd:	48 89 f7             	mov    %rsi,%rdi
    f0d0:	e8 db 03 02 00       	callq  2f4b0 <_ZN4core3fmt9Formatter15debug_lower_hex17hb86af077381a7eb0E>
    f0d5:	84 c0                	test   %al,%al
    f0d7:	74 12                	je     f0eb <_ZN42_$LT$$RF$T$u20$as$u20$core..fmt..Debug$GT$3fmt17h76ded60b3d19d310E+0x2b>
    f0d9:	4c 89 f7             	mov    %r14,%rdi
    f0dc:	48 89 de             	mov    %rbx,%rsi
    f0df:	48 83 c4 08          	add    $0x8,%rsp
    f0e3:	5b                   	pop    %rbx
    f0e4:	41 5e                	pop    %r14
    f0e6:	e9 35 25 02 00       	jmpq   31620 <_ZN4core3fmt3num53_$LT$impl$u20$core..fmt..LowerHex$u20$for$u20$i64$GT$3fmt17h753d8d8064acba52E>
    f0eb:	48 89 df             	mov    %rbx,%rdi
    f0ee:	e8 dd 03 02 00       	callq  2f4d0 <_ZN4core3fmt9Formatter15debug_upper_hex17hb88c2d73c93c156eE>
    f0f3:	4c 89 f7             	mov    %r14,%rdi
    f0f6:	48 89 de             	mov    %rbx,%rsi
    f0f9:	48 83 c4 08          	add    $0x8,%rsp
    f0fd:	84 c0                	test   %al,%al
    f0ff:	74 08                	je     f109 <_ZN42_$LT$$RF$T$u20$as$u20$core..fmt..Debug$GT$3fmt17h76ded60b3d19d310E+0x49>
    f101:	5b                   	pop    %rbx
    f102:	41 5e                	pop    %r14
    f104:	e9 b7 25 02 00       	jmpq   316c0 <_ZN4core3fmt3num53_$LT$impl$u20$core..fmt..UpperHex$u20$for$u20$i64$GT$3fmt17hf709a8165b6edb6dE>
    f109:	5b                   	pop    %rbx
    f10a:	41 5e                	pop    %r14
    f10c:	e9 9f 2b 02 00       	jmpq   31cb0 <_ZN4core3fmt3num3imp52_$LT$impl$u20$core..fmt..Display$u20$for$u20$i64$GT$3fmt17hc2a9303dbc9c80caE>
    f111:	cc                   	int3   
    f112:	cc                   	int3   
    f113:	cc                   	int3   
    f114:	cc                   	int3   
    f115:	cc                   	int3   
    f116:	cc                   	int3   
    f117:	cc                   	int3   
    f118:	cc                   	int3   
    f119:	cc                   	int3   
    f11a:	cc                   	int3   
    f11b:	cc                   	int3   
    f11c:	cc                   	int3   
    f11d:	cc                   	int3   
    f11e:	cc                   	int3   
    f11f:	cc                   	int3   

000000000000f120 <_ZN42_$LT$$RF$T$u20$as$u20$core..fmt..Debug$GT$3fmt17h99824abd7231cde6E>:
    f120:	41 57                	push   %r15
    f122:	41 56                	push   %r14
    f124:	41 55                	push   %r13
    f126:	41 54                	push   %r12
    f128:	53                   	push   %rbx
    f129:	48 83 ec 20          	sub    $0x20,%rsp
    f12d:	0f ae e8             	lfence 
    f130:	48 8b 07             	mov    (%rdi),%rax
    f133:	0f ae e8             	lfence 
    f136:	48 8b 18             	mov    (%rax),%rbx
    f139:	4c 8b 68 10          	mov    0x10(%rax),%r13
    f13d:	48 89 f7             	mov    %rsi,%rdi
    f140:	e8 2b 04 02 00       	callq  2f570 <_ZN4core3fmt9Formatter10debug_list17h49365955d05cab39E>
    f145:	48 89 54 24 10       	mov    %rdx,0x10(%rsp)
    f14a:	48 89 44 24 08       	mov    %rax,0x8(%rsp)
    f14f:	4d 85 ed             	test   %r13,%r13
    f152:	74 39                	je     f18d <_ZN42_$LT$$RF$T$u20$as$u20$core..fmt..Debug$GT$3fmt17h99824abd7231cde6E+0x6d>
    f154:	4c 8d 35 55 46 02 00 	lea    0x24655(%rip),%r14        # 337b0 <_ZN9libunwind13DwarfFDECacheINS_17LocalAddressSpaceEE10_bufferEndE+0x148>
    f15b:	4c 8d 7c 24 08       	lea    0x8(%rsp),%r15
    f160:	4c 8d 64 24 18       	lea    0x18(%rsp),%r12
    f165:	66 2e 0f 1f 84 00 00 	nopw   %cs:0x0(%rax,%rax,1)
    f16c:	00 00 00 
    f16f:	90                   	nop
    f170:	48 89 5c 24 18       	mov    %rbx,0x18(%rsp)
    f175:	48 83 c3 01          	add    $0x1,%rbx
    f179:	4c 89 ff             	mov    %r15,%rdi
    f17c:	4c 89 e6             	mov    %r12,%rsi
    f17f:	4c 89 f2             	mov    %r14,%rdx
    f182:	e8 29 ef 01 00       	callq  2e0b0 <_ZN4core3fmt8builders8DebugSet5entry17h13bad8309e27398bE>
    f187:	49 83 c5 ff          	add    $0xffffffffffffffff,%r13
    f18b:	75 e3                	jne    f170 <_ZN42_$LT$$RF$T$u20$as$u20$core..fmt..Debug$GT$3fmt17h99824abd7231cde6E+0x50>
    f18d:	48 8d 7c 24 08       	lea    0x8(%rsp),%rdi
    f192:	e8 39 ef 01 00       	callq  2e0d0 <_ZN4core3fmt8builders9DebugList6finish17hef51ec5f33b3b498E>
    f197:	48 83 c4 20          	add    $0x20,%rsp
    f19b:	5b                   	pop    %rbx
    f19c:	41 5c                	pop    %r12
    f19e:	41 5d                	pop    %r13
    f1a0:	41 5e                	pop    %r14
    f1a2:	41 5f                	pop    %r15
    f1a4:	59                   	pop    %rcx
    f1a5:	0f ae e8             	lfence 
    f1a8:	ff e1                	jmpq   *%rcx
    f1aa:	cc                   	int3   
    f1ab:	cc                   	int3   
    f1ac:	cc                   	int3   
    f1ad:	cc                   	int3   
    f1ae:	cc                   	int3   
    f1af:	cc                   	int3   

000000000000f1b0 <_ZN42_$LT$$RF$T$u20$as$u20$core..fmt..Debug$GT$3fmt17h9c98bf070f570ee5E>:
    f1b0:	0f ae e8             	lfence 
    f1b3:	48 8b 3f             	mov    (%rdi),%rdi
    f1b6:	e9 95 e7 00 00       	jmpq   1d950 <_ZN62_$LT$std..io..error..ErrorKind$u20$as$u20$core..fmt..Debug$GT$3fmt17hf2332911fc90af3eE>
    f1bb:	cc                   	int3   
    f1bc:	cc                   	int3   
    f1bd:	cc                   	int3   
    f1be:	cc                   	int3   
    f1bf:	cc                   	int3   

000000000000f1c0 <_ZN42_$LT$$RF$T$u20$as$u20$core..fmt..Debug$GT$3fmt17hcbad40d1e84a95e8E>:
    f1c0:	0f ae e8             	lfence 
    f1c3:	48 89 f2             	mov    %rsi,%rdx
    f1c6:	48 8b 07             	mov    (%rdi),%rax
    f1c9:	48 8b 77 08          	mov    0x8(%rdi),%rsi
    f1cd:	48 89 c7             	mov    %rax,%rdi
    f1d0:	e9 db 03 02 00       	jmpq   2f5b0 <_ZN40_$LT$str$u20$as$u20$core..fmt..Debug$GT$3fmt17h27f9f567643e0671E>
    f1d5:	cc                   	int3   
    f1d6:	cc                   	int3   
    f1d7:	cc                   	int3   
    f1d8:	cc                   	int3   
    f1d9:	cc                   	int3   
    f1da:	cc                   	int3   
    f1db:	cc                   	int3   
    f1dc:	cc                   	int3   
    f1dd:	cc                   	int3   
    f1de:	cc                   	int3   
    f1df:	cc                   	int3   

000000000000f1e0 <_ZN42_$LT$$RF$T$u20$as$u20$core..fmt..Debug$GT$3fmt17he151685d6decfe9dE>:
    f1e0:	48 89 f7             	mov    %rsi,%rdi
    f1e3:	48 8d 35 b6 5d ff ff 	lea    -0xa24a(%rip),%rsi        # 4fa0 <EH_FRM_LEN+0x360>
    f1ea:	ba 02 00 00 00       	mov    $0x2,%edx
    f1ef:	e9 0c fb 01 00       	jmpq   2ed00 <_ZN4core3fmt9Formatter3pad17h6d783f818ac920f7E>
    f1f4:	cc                   	int3   
    f1f5:	cc                   	int3   
    f1f6:	cc                   	int3   
    f1f7:	cc                   	int3   
    f1f8:	cc                   	int3   
    f1f9:	cc                   	int3   
    f1fa:	cc                   	int3   
    f1fb:	cc                   	int3   
    f1fc:	cc                   	int3   
    f1fd:	cc                   	int3   
    f1fe:	cc                   	int3   
    f1ff:	cc                   	int3   

000000000000f200 <_ZN42_$LT$$RF$T$u20$as$u20$core..fmt..Debug$GT$3fmt17he30e55eb1eb3254aE>:
    f200:	0f ae e8             	lfence 
    f203:	48 8b 07             	mov    (%rdi),%rax
    f206:	0f ae e8             	lfence 
    f209:	48 8b 38             	mov    (%rax),%rdi
    f20c:	e9 7f 7b 00 00       	jmpq   16d90 <_ZN57_$LT$std..io..error..Repr$u20$as$u20$core..fmt..Debug$GT$3fmt17h2a7b9f4ea28ff397E>
    f211:	cc                   	int3   
    f212:	cc                   	int3   
    f213:	cc                   	int3   
    f214:	cc                   	int3   
    f215:	cc                   	int3   
    f216:	cc                   	int3   
    f217:	cc                   	int3   
    f218:	cc                   	int3   
    f219:	cc                   	int3   
    f21a:	cc                   	int3   
    f21b:	cc                   	int3   
    f21c:	cc                   	int3   
    f21d:	cc                   	int3   
    f21e:	cc                   	int3   
    f21f:	cc                   	int3   

000000000000f220 <_ZN42_$LT$$RF$T$u20$as$u20$core..fmt..Debug$GT$3fmt17hfa7aa8d131532aa2E>:
    f220:	0f ae e8             	lfence 
    f223:	48 8b 07             	mov    (%rdi),%rax
    f226:	0f ae e8             	lfence 
    f229:	48 8b 38             	mov    (%rax),%rdi
    f22c:	48 8b 40 08          	mov    0x8(%rax),%rax
    f230:	0f ae e8             	lfence 
    f233:	4c 8b 58 48          	mov    0x48(%rax),%r11
    f237:	e9 64 f7 ff ff       	jmpq   e9a0 <__llvm_lvi_thunk_r11>
    f23c:	cc                   	int3   
    f23d:	cc                   	int3   
    f23e:	cc                   	int3   
    f23f:	cc                   	int3   

000000000000f240 <_ZN44_$LT$$RF$T$u20$as$u20$core..fmt..Display$GT$3fmt17h72cd4f8240d366b9E>:
    f240:	0f ae e8             	lfence 
    f243:	48 8b 3f             	mov    (%rdi),%rdi
    f246:	e9 a5 e1 01 00       	jmpq   2d3f0 <_ZN60_$LT$core..panic..Location$u20$as$u20$core..fmt..Display$GT$3fmt17h187762803f244999E>
    f24b:	cc                   	int3   
    f24c:	cc                   	int3   
    f24d:	cc                   	int3   
    f24e:	cc                   	int3   
    f24f:	cc                   	int3   

000000000000f250 <_ZN44_$LT$$RF$T$u20$as$u20$core..fmt..Display$GT$3fmt17ha4b4894328e15b1bE>:
    f250:	0f ae e8             	lfence 
    f253:	48 89 f2             	mov    %rsi,%rdx
    f256:	48 8b 07             	mov    (%rdi),%rax
    f259:	48 8b 77 08          	mov    0x8(%rdi),%rsi
    f25d:	48 89 c7             	mov    %rax,%rdi
    f260:	e9 9b 08 02 00       	jmpq   2fb00 <_ZN42_$LT$str$u20$as$u20$core..fmt..Display$GT$3fmt17h0e77dbd5b9a2736eE>
    f265:	cc                   	int3   
    f266:	cc                   	int3   
    f267:	cc                   	int3   
    f268:	cc                   	int3   
    f269:	cc                   	int3   
    f26a:	cc                   	int3   
    f26b:	cc                   	int3   
    f26c:	cc                   	int3   
    f26d:	cc                   	int3   
    f26e:	cc                   	int3   
    f26f:	cc                   	int3   

000000000000f270 <_ZN4core3fmt3num50_$LT$impl$u20$core..fmt..Debug$u20$for$u20$i32$GT$3fmt17h19798a4eb17adce5E>:
    f270:	41 56                	push   %r14
    f272:	53                   	push   %rbx
    f273:	50                   	push   %rax
    f274:	48 89 f3             	mov    %rsi,%rbx
    f277:	49 89 fe             	mov    %rdi,%r14
    f27a:	48 89 f7             	mov    %rsi,%rdi
    f27d:	e8 2e 02 02 00       	callq  2f4b0 <_ZN4core3fmt9Formatter15debug_lower_hex17hb86af077381a7eb0E>
    f282:	84 c0                	test   %al,%al
    f284:	74 12                	je     f298 <_ZN4core3fmt3num50_$LT$impl$u20$core..fmt..Debug$u20$for$u20$i32$GT$3fmt17h19798a4eb17adce5E+0x28>
    f286:	4c 89 f7             	mov    %r14,%rdi
    f289:	48 89 de             	mov    %rbx,%rsi
    f28c:	48 83 c4 08          	add    $0x8,%rsp
    f290:	5b                   	pop    %rbx
    f291:	41 5e                	pop    %r14
    f293:	e9 48 22 02 00       	jmpq   314e0 <_ZN4core3fmt3num53_$LT$impl$u20$core..fmt..LowerHex$u20$for$u20$i32$GT$3fmt17h028414005e923bf7E>
    f298:	48 89 df             	mov    %rbx,%rdi
    f29b:	e8 30 02 02 00       	callq  2f4d0 <_ZN4core3fmt9Formatter15debug_upper_hex17hb88c2d73c93c156eE>
    f2a0:	4c 89 f7             	mov    %r14,%rdi
    f2a3:	48 89 de             	mov    %rbx,%rsi
    f2a6:	48 83 c4 08          	add    $0x8,%rsp
    f2aa:	84 c0                	test   %al,%al
    f2ac:	74 08                	je     f2b6 <_ZN4core3fmt3num50_$LT$impl$u20$core..fmt..Debug$u20$for$u20$i32$GT$3fmt17h19798a4eb17adce5E+0x46>
    f2ae:	5b                   	pop    %rbx
    f2af:	41 5e                	pop    %r14
    f2b1:	e9 ca 22 02 00       	jmpq   31580 <_ZN4core3fmt3num53_$LT$impl$u20$core..fmt..UpperHex$u20$for$u20$i32$GT$3fmt17hd7a847d19929e5fdE>
    f2b6:	5b                   	pop    %rbx
    f2b7:	41 5e                	pop    %r14
    f2b9:	e9 82 27 02 00       	jmpq   31a40 <_ZN4core3fmt3num3imp52_$LT$impl$u20$core..fmt..Display$u20$for$u20$i32$GT$3fmt17h96610dbc6174515eE>
    f2be:	cc                   	int3   
    f2bf:	cc                   	int3   

000000000000f2c0 <_ZN4core3fmt5Write10write_char17h7e726f569f0299e6E>:
    f2c0:	50                   	push   %rax
    f2c1:	0f ae e8             	lfence 
    f2c4:	c7 44 24 04 00 00 00 	movl   $0x0,0x4(%rsp)
    f2cb:	00 
    f2cc:	81 fe 80 00 00 00    	cmp    $0x80,%esi
    f2d2:	73 1b                	jae    f2ef <_ZN4core3fmt5Write10write_char17h7e726f569f0299e6E+0x2f>
    f2d4:	40 88 74 24 04       	mov    %sil,0x4(%rsp)
    f2d9:	ba 01 00 00 00       	mov    $0x1,%edx
    f2de:	48 8d 74 24 04       	lea    0x4(%rsp),%rsi
    f2e3:	e8 48 a1 00 00       	callq  19430 <_ZN80_$LT$std..io..Write..write_fmt..Adaptor$LT$T$GT$$u20$as$u20$core..fmt..Write$GT$9write_str17h8ecd7e37f125a6f7E>
    f2e8:	59                   	pop    %rcx
    f2e9:	59                   	pop    %rcx
    f2ea:	0f ae e8             	lfence 
    f2ed:	ff e1                	jmpq   *%rcx
    f2ef:	89 f0                	mov    %esi,%eax
    f2f1:	81 fe 00 08 00 00    	cmp    $0x800,%esi
    f2f7:	73 2c                	jae    f325 <_ZN4core3fmt5Write10write_char17h7e726f569f0299e6E+0x65>
    f2f9:	c1 e8 06             	shr    $0x6,%eax
    f2fc:	0c c0                	or     $0xc0,%al
    f2fe:	88 44 24 04          	mov    %al,0x4(%rsp)
    f302:	40 80 e6 3f          	and    $0x3f,%sil
    f306:	40 80 ce 80          	or     $0x80,%sil
    f30a:	40 88 74 24 05       	mov    %sil,0x5(%rsp)
    f30f:	ba 02 00 00 00       	mov    $0x2,%edx
    f314:	48 8d 74 24 04       	lea    0x4(%rsp),%rsi
    f319:	e8 12 a1 00 00       	callq  19430 <_ZN80_$LT$std..io..Write..write_fmt..Adaptor$LT$T$GT$$u20$as$u20$core..fmt..Write$GT$9write_str17h8ecd7e37f125a6f7E>
    f31e:	59                   	pop    %rcx
    f31f:	59                   	pop    %rcx
    f320:	0f ae e8             	lfence 
    f323:	ff e1                	jmpq   *%rcx
    f325:	81 fe 00 00 01 00    	cmp    $0x10000,%esi
    f32b:	73 39                	jae    f366 <_ZN4core3fmt5Write10write_char17h7e726f569f0299e6E+0xa6>
    f32d:	c1 e8 0c             	shr    $0xc,%eax
    f330:	0c e0                	or     $0xe0,%al
    f332:	88 44 24 04          	mov    %al,0x4(%rsp)
    f336:	89 f0                	mov    %esi,%eax
    f338:	c1 e8 06             	shr    $0x6,%eax
    f33b:	24 3f                	and    $0x3f,%al
    f33d:	0c 80                	or     $0x80,%al
    f33f:	88 44 24 05          	mov    %al,0x5(%rsp)
    f343:	40 80 e6 3f          	and    $0x3f,%sil
    f347:	40 80 ce 80          	or     $0x80,%sil
    f34b:	40 88 74 24 06       	mov    %sil,0x6(%rsp)
    f350:	ba 03 00 00 00       	mov    $0x3,%edx
    f355:	48 8d 74 24 04       	lea    0x4(%rsp),%rsi
    f35a:	e8 d1 a0 00 00       	callq  19430 <_ZN80_$LT$std..io..Write..write_fmt..Adaptor$LT$T$GT$$u20$as$u20$core..fmt..Write$GT$9write_str17h8ecd7e37f125a6f7E>
    f35f:	59                   	pop    %rcx
    f360:	59                   	pop    %rcx
    f361:	0f ae e8             	lfence 
    f364:	ff e1                	jmpq   *%rcx
    f366:	c1 e8 12             	shr    $0x12,%eax
    f369:	0c f0                	or     $0xf0,%al
    f36b:	88 44 24 04          	mov    %al,0x4(%rsp)
    f36f:	89 f0                	mov    %esi,%eax
    f371:	c1 e8 0c             	shr    $0xc,%eax
    f374:	24 3f                	and    $0x3f,%al
    f376:	0c 80                	or     $0x80,%al
    f378:	88 44 24 05          	mov    %al,0x5(%rsp)
    f37c:	89 f0                	mov    %esi,%eax
    f37e:	c1 e8 06             	shr    $0x6,%eax
    f381:	24 3f                	and    $0x3f,%al
    f383:	0c 80                	or     $0x80,%al
    f385:	88 44 24 06          	mov    %al,0x6(%rsp)
    f389:	40 80 e6 3f          	and    $0x3f,%sil
    f38d:	40 80 ce 80          	or     $0x80,%sil
    f391:	40 88 74 24 07       	mov    %sil,0x7(%rsp)
    f396:	ba 04 00 00 00       	mov    $0x4,%edx
    f39b:	48 8d 74 24 04       	lea    0x4(%rsp),%rsi
    f3a0:	e8 8b a0 00 00       	callq  19430 <_ZN80_$LT$std..io..Write..write_fmt..Adaptor$LT$T$GT$$u20$as$u20$core..fmt..Write$GT$9write_str17h8ecd7e37f125a6f7E>
    f3a5:	59                   	pop    %rcx
    f3a6:	59                   	pop    %rcx
    f3a7:	0f ae e8             	lfence 
    f3aa:	ff e1                	jmpq   *%rcx
    f3ac:	cc                   	int3   
    f3ad:	cc                   	int3   
    f3ae:	cc                   	int3   
    f3af:	cc                   	int3   

000000000000f3b0 <_ZN4core3fmt5Write10write_char17h7ebce375349f89e6E>:
    f3b0:	41 57                	push   %r15
    f3b2:	41 56                	push   %r14
    f3b4:	53                   	push   %rbx
    f3b5:	48 83 ec 10          	sub    $0x10,%rsp
    f3b9:	0f ae e8             	lfence 
    f3bc:	c7 44 24 0c 00 00 00 	movl   $0x0,0xc(%rsp)
    f3c3:	00 
    f3c4:	81 fe 80 00 00 00    	cmp    $0x80,%esi
    f3ca:	73 10                	jae    f3dc <_ZN4core3fmt5Write10write_char17h7ebce375349f89e6E+0x2c>
    f3cc:	40 88 74 24 0c       	mov    %sil,0xc(%rsp)
    f3d1:	41 be 01 00 00 00    	mov    $0x1,%r14d
    f3d7:	e9 91 00 00 00       	jmpq   f46d <_ZN4core3fmt5Write10write_char17h7ebce375349f89e6E+0xbd>
    f3dc:	89 f0                	mov    %esi,%eax
    f3de:	81 fe 00 08 00 00    	cmp    $0x800,%esi
    f3e4:	73 1e                	jae    f404 <_ZN4core3fmt5Write10write_char17h7ebce375349f89e6E+0x54>
    f3e6:	c1 e8 06             	shr    $0x6,%eax
    f3e9:	0c c0                	or     $0xc0,%al
    f3eb:	88 44 24 0c          	mov    %al,0xc(%rsp)
    f3ef:	40 80 e6 3f          	and    $0x3f,%sil
    f3f3:	40 80 ce 80          	or     $0x80,%sil
    f3f7:	40 88 74 24 0d       	mov    %sil,0xd(%rsp)
    f3fc:	41 be 02 00 00 00    	mov    $0x2,%r14d
    f402:	eb 69                	jmp    f46d <_ZN4core3fmt5Write10write_char17h7ebce375349f89e6E+0xbd>
    f404:	81 fe 00 00 01 00    	cmp    $0x10000,%esi
    f40a:	73 2b                	jae    f437 <_ZN4core3fmt5Write10write_char17h7ebce375349f89e6E+0x87>
    f40c:	c1 e8 0c             	shr    $0xc,%eax
    f40f:	0c e0                	or     $0xe0,%al
    f411:	88 44 24 0c          	mov    %al,0xc(%rsp)
    f415:	89 f0                	mov    %esi,%eax
    f417:	c1 e8 06             	shr    $0x6,%eax
    f41a:	24 3f                	and    $0x3f,%al
    f41c:	0c 80                	or     $0x80,%al
    f41e:	88 44 24 0d          	mov    %al,0xd(%rsp)
    f422:	40 80 e6 3f          	and    $0x3f,%sil
    f426:	40 80 ce 80          	or     $0x80,%sil
    f42a:	40 88 74 24 0e       	mov    %sil,0xe(%rsp)
    f42f:	41 be 03 00 00 00    	mov    $0x3,%r14d
    f435:	eb 36                	jmp    f46d <_ZN4core3fmt5Write10write_char17h7ebce375349f89e6E+0xbd>
    f437:	c1 e8 12             	shr    $0x12,%eax
    f43a:	0c f0                	or     $0xf0,%al
    f43c:	88 44 24 0c          	mov    %al,0xc(%rsp)
    f440:	89 f0                	mov    %esi,%eax
    f442:	c1 e8 0c             	shr    $0xc,%eax
    f445:	24 3f                	and    $0x3f,%al
    f447:	0c 80                	or     $0x80,%al
    f449:	88 44 24 0d          	mov    %al,0xd(%rsp)
    f44d:	89 f0                	mov    %esi,%eax
    f44f:	c1 e8 06             	shr    $0x6,%eax
    f452:	24 3f                	and    $0x3f,%al
    f454:	0c 80                	or     $0x80,%al
    f456:	88 44 24 0e          	mov    %al,0xe(%rsp)
    f45a:	40 80 e6 3f          	and    $0x3f,%sil
    f45e:	40 80 ce 80          	or     $0x80,%sil
    f462:	40 88 74 24 0f       	mov    %sil,0xf(%rsp)
    f467:	41 be 04 00 00 00    	mov    $0x4,%r14d
    f46d:	4c 8b 3f             	mov    (%rdi),%r15
    f470:	0f ae e8             	lfence 
    f473:	49 8b 47 08          	mov    0x8(%r15),%rax
    f477:	0f ae e8             	lfence 
    f47a:	49 8b 5f 10          	mov    0x10(%r15),%rbx
    f47e:	0f ae e8             	lfence 
    f481:	48 29 d8             	sub    %rbx,%rax
    f484:	4c 39 f0             	cmp    %r14,%rax
    f487:	72 2b                	jb     f4b4 <_ZN4core3fmt5Write10write_char17h7ebce375349f89e6E+0x104>
    f489:	49 8b 3f             	mov    (%r15),%rdi
    f48c:	48 01 df             	add    %rbx,%rdi
    f48f:	48 8d 74 24 0c       	lea    0xc(%rsp),%rsi
    f494:	4c 89 f2             	mov    %r14,%rdx
    f497:	e8 24 2d 02 00       	callq  321c0 <memcpy>
    f49c:	4c 01 f3             	add    %r14,%rbx
    f49f:	49 89 5f 10          	mov    %rbx,0x10(%r15)
    f4a3:	31 c0                	xor    %eax,%eax
    f4a5:	48 83 c4 10          	add    $0x10,%rsp
    f4a9:	5b                   	pop    %rbx
    f4aa:	41 5e                	pop    %r14
    f4ac:	41 5f                	pop    %r15
    f4ae:	59                   	pop    %rcx
    f4af:	0f ae e8             	lfence 
    f4b2:	ff e1                	jmpq   *%rcx
    f4b4:	4c 89 ff             	mov    %r15,%rdi
    f4b7:	48 89 de             	mov    %rbx,%rsi
    f4ba:	4c 89 f2             	mov    %r14,%rdx
    f4bd:	e8 0e 3d 00 00       	callq  131d0 <_ZN5alloc7raw_vec19RawVec$LT$T$C$A$GT$7reserve21do_reserve_and_handle17h6da2977bdde9873cE>
    f4c2:	49 8b 5f 10          	mov    0x10(%r15),%rbx
    f4c6:	eb c1                	jmp    f489 <_ZN4core3fmt5Write10write_char17h7ebce375349f89e6E+0xd9>
    f4c8:	cc                   	int3   
    f4c9:	cc                   	int3   
    f4ca:	cc                   	int3   
    f4cb:	cc                   	int3   
    f4cc:	cc                   	int3   
    f4cd:	cc                   	int3   
    f4ce:	cc                   	int3   
    f4cf:	cc                   	int3   

000000000000f4d0 <_ZN4core3fmt5Write10write_char17h8be5f5ba10581d99E>:
    f4d0:	50                   	push   %rax
    f4d1:	0f ae e8             	lfence 
    f4d4:	c7 44 24 04 00 00 00 	movl   $0x0,0x4(%rsp)
    f4db:	00 
    f4dc:	81 fe 80 00 00 00    	cmp    $0x80,%esi
    f4e2:	73 1b                	jae    f4ff <_ZN4core3fmt5Write10write_char17h8be5f5ba10581d99E+0x2f>
    f4e4:	40 88 74 24 04       	mov    %sil,0x4(%rsp)
    f4e9:	ba 01 00 00 00       	mov    $0x1,%edx
    f4ee:	48 8d 74 24 04       	lea    0x4(%rsp),%rsi
    f4f3:	e8 18 9c 00 00       	callq  19110 <_ZN80_$LT$std..io..Write..write_fmt..Adaptor$LT$T$GT$$u20$as$u20$core..fmt..Write$GT$9write_str17h122c52f708c557b1E>
    f4f8:	59                   	pop    %rcx
    f4f9:	59                   	pop    %rcx
    f4fa:	0f ae e8             	lfence 
    f4fd:	ff e1                	jmpq   *%rcx
    f4ff:	89 f0                	mov    %esi,%eax
    f501:	81 fe 00 08 00 00    	cmp    $0x800,%esi
    f507:	73 2c                	jae    f535 <_ZN4core3fmt5Write10write_char17h8be5f5ba10581d99E+0x65>
    f509:	c1 e8 06             	shr    $0x6,%eax
    f50c:	0c c0                	or     $0xc0,%al
    f50e:	88 44 24 04          	mov    %al,0x4(%rsp)
    f512:	40 80 e6 3f          	and    $0x3f,%sil
    f516:	40 80 ce 80          	or     $0x80,%sil
    f51a:	40 88 74 24 05       	mov    %sil,0x5(%rsp)
    f51f:	ba 02 00 00 00       	mov    $0x2,%edx
    f524:	48 8d 74 24 04       	lea    0x4(%rsp),%rsi
    f529:	e8 e2 9b 00 00       	callq  19110 <_ZN80_$LT$std..io..Write..write_fmt..Adaptor$LT$T$GT$$u20$as$u20$core..fmt..Write$GT$9write_str17h122c52f708c557b1E>
    f52e:	59                   	pop    %rcx
    f52f:	59                   	pop    %rcx
    f530:	0f ae e8             	lfence 
    f533:	ff e1                	jmpq   *%rcx
    f535:	81 fe 00 00 01 00    	cmp    $0x10000,%esi
    f53b:	73 39                	jae    f576 <_ZN4core3fmt5Write10write_char17h8be5f5ba10581d99E+0xa6>
    f53d:	c1 e8 0c             	shr    $0xc,%eax
    f540:	0c e0                	or     $0xe0,%al
    f542:	88 44 24 04          	mov    %al,0x4(%rsp)
    f546:	89 f0                	mov    %esi,%eax
    f548:	c1 e8 06             	shr    $0x6,%eax
    f54b:	24 3f                	and    $0x3f,%al
    f54d:	0c 80                	or     $0x80,%al
    f54f:	88 44 24 05          	mov    %al,0x5(%rsp)
    f553:	40 80 e6 3f          	and    $0x3f,%sil
    f557:	40 80 ce 80          	or     $0x80,%sil
    f55b:	40 88 74 24 06       	mov    %sil,0x6(%rsp)
    f560:	ba 03 00 00 00       	mov    $0x3,%edx
    f565:	48 8d 74 24 04       	lea    0x4(%rsp),%rsi
    f56a:	e8 a1 9b 00 00       	callq  19110 <_ZN80_$LT$std..io..Write..write_fmt..Adaptor$LT$T$GT$$u20$as$u20$core..fmt..Write$GT$9write_str17h122c52f708c557b1E>
    f56f:	59                   	pop    %rcx
    f570:	59                   	pop    %rcx
    f571:	0f ae e8             	lfence 
    f574:	ff e1                	jmpq   *%rcx
    f576:	c1 e8 12             	shr    $0x12,%eax
    f579:	0c f0                	or     $0xf0,%al
    f57b:	88 44 24 04          	mov    %al,0x4(%rsp)
    f57f:	89 f0                	mov    %esi,%eax
    f581:	c1 e8 0c             	shr    $0xc,%eax
    f584:	24 3f                	and    $0x3f,%al
    f586:	0c 80                	or     $0x80,%al
    f588:	88 44 24 05          	mov    %al,0x5(%rsp)
    f58c:	89 f0                	mov    %esi,%eax
    f58e:	c1 e8 06             	shr    $0x6,%eax
    f591:	24 3f                	and    $0x3f,%al
    f593:	0c 80                	or     $0x80,%al
    f595:	88 44 24 06          	mov    %al,0x6(%rsp)
    f599:	40 80 e6 3f          	and    $0x3f,%sil
    f59d:	40 80 ce 80          	or     $0x80,%sil
    f5a1:	40 88 74 24 07       	mov    %sil,0x7(%rsp)
    f5a6:	ba 04 00 00 00       	mov    $0x4,%edx
    f5ab:	48 8d 74 24 04       	lea    0x4(%rsp),%rsi
    f5b0:	e8 5b 9b 00 00       	callq  19110 <_ZN80_$LT$std..io..Write..write_fmt..Adaptor$LT$T$GT$$u20$as$u20$core..fmt..Write$GT$9write_str17h122c52f708c557b1E>
    f5b5:	59                   	pop    %rcx
    f5b6:	59                   	pop    %rcx
    f5b7:	0f ae e8             	lfence 
    f5ba:	ff e1                	jmpq   *%rcx
    f5bc:	cc                   	int3   
    f5bd:	cc                   	int3   
    f5be:	cc                   	int3   
    f5bf:	cc                   	int3   

000000000000f5c0 <_ZN4core3fmt5Write10write_char17hc0ed75f52a299098E>:
    f5c0:	50                   	push   %rax
    f5c1:	0f ae e8             	lfence 
    f5c4:	c7 44 24 04 00 00 00 	movl   $0x0,0x4(%rsp)
    f5cb:	00 
    f5cc:	81 fe 80 00 00 00    	cmp    $0x80,%esi
    f5d2:	73 1b                	jae    f5ef <_ZN4core3fmt5Write10write_char17hc0ed75f52a299098E+0x2f>
    f5d4:	40 88 74 24 04       	mov    %sil,0x4(%rsp)
    f5d9:	ba 01 00 00 00       	mov    $0x1,%edx
    f5de:	48 8d 74 24 04       	lea    0x4(%rsp),%rsi
    f5e3:	e8 48 9d 00 00       	callq  19330 <_ZN80_$LT$std..io..Write..write_fmt..Adaptor$LT$T$GT$$u20$as$u20$core..fmt..Write$GT$9write_str17h791b0136e657472bE>
    f5e8:	59                   	pop    %rcx
    f5e9:	59                   	pop    %rcx
    f5ea:	0f ae e8             	lfence 
    f5ed:	ff e1                	jmpq   *%rcx
    f5ef:	89 f0                	mov    %esi,%eax
    f5f1:	81 fe 00 08 00 00    	cmp    $0x800,%esi
    f5f7:	73 2c                	jae    f625 <_ZN4core3fmt5Write10write_char17hc0ed75f52a299098E+0x65>
    f5f9:	c1 e8 06             	shr    $0x6,%eax
    f5fc:	0c c0                	or     $0xc0,%al
    f5fe:	88 44 24 04          	mov    %al,0x4(%rsp)
    f602:	40 80 e6 3f          	and    $0x3f,%sil
    f606:	40 80 ce 80          	or     $0x80,%sil
    f60a:	40 88 74 24 05       	mov    %sil,0x5(%rsp)
    f60f:	ba 02 00 00 00       	mov    $0x2,%edx
    f614:	48 8d 74 24 04       	lea    0x4(%rsp),%rsi
    f619:	e8 12 9d 00 00       	callq  19330 <_ZN80_$LT$std..io..Write..write_fmt..Adaptor$LT$T$GT$$u20$as$u20$core..fmt..Write$GT$9write_str17h791b0136e657472bE>
    f61e:	59                   	pop    %rcx
    f61f:	59                   	pop    %rcx
    f620:	0f ae e8             	lfence 
    f623:	ff e1                	jmpq   *%rcx
    f625:	81 fe 00 00 01 00    	cmp    $0x10000,%esi
    f62b:	73 39                	jae    f666 <_ZN4core3fmt5Write10write_char17hc0ed75f52a299098E+0xa6>
    f62d:	c1 e8 0c             	shr    $0xc,%eax
    f630:	0c e0                	or     $0xe0,%al
    f632:	88 44 24 04          	mov    %al,0x4(%rsp)
    f636:	89 f0                	mov    %esi,%eax
    f638:	c1 e8 06             	shr    $0x6,%eax
    f63b:	24 3f                	and    $0x3f,%al
    f63d:	0c 80                	or     $0x80,%al
    f63f:	88 44 24 05          	mov    %al,0x5(%rsp)
    f643:	40 80 e6 3f          	and    $0x3f,%sil
    f647:	40 80 ce 80          	or     $0x80,%sil
    f64b:	40 88 74 24 06       	mov    %sil,0x6(%rsp)
    f650:	ba 03 00 00 00       	mov    $0x3,%edx
    f655:	48 8d 74 24 04       	lea    0x4(%rsp),%rsi
    f65a:	e8 d1 9c 00 00       	callq  19330 <_ZN80_$LT$std..io..Write..write_fmt..Adaptor$LT$T$GT$$u20$as$u20$core..fmt..Write$GT$9write_str17h791b0136e657472bE>
    f65f:	59                   	pop    %rcx
    f660:	59                   	pop    %rcx
    f661:	0f ae e8             	lfence 
    f664:	ff e1                	jmpq   *%rcx
    f666:	c1 e8 12             	shr    $0x12,%eax
    f669:	0c f0                	or     $0xf0,%al
    f66b:	88 44 24 04          	mov    %al,0x4(%rsp)
    f66f:	89 f0                	mov    %esi,%eax
    f671:	c1 e8 0c             	shr    $0xc,%eax
    f674:	24 3f                	and    $0x3f,%al
    f676:	0c 80                	or     $0x80,%al
    f678:	88 44 24 05          	mov    %al,0x5(%rsp)
    f67c:	89 f0                	mov    %esi,%eax
    f67e:	c1 e8 06             	shr    $0x6,%eax
    f681:	24 3f                	and    $0x3f,%al
    f683:	0c 80                	or     $0x80,%al
    f685:	88 44 24 06          	mov    %al,0x6(%rsp)
    f689:	40 80 e6 3f          	and    $0x3f,%sil
    f68d:	40 80 ce 80          	or     $0x80,%sil
    f691:	40 88 74 24 07       	mov    %sil,0x7(%rsp)
    f696:	ba 04 00 00 00       	mov    $0x4,%edx
    f69b:	48 8d 74 24 04       	lea    0x4(%rsp),%rsi
    f6a0:	e8 8b 9c 00 00       	callq  19330 <_ZN80_$LT$std..io..Write..write_fmt..Adaptor$LT$T$GT$$u20$as$u20$core..fmt..Write$GT$9write_str17h791b0136e657472bE>
    f6a5:	59                   	pop    %rcx
    f6a6:	59                   	pop    %rcx
    f6a7:	0f ae e8             	lfence 
    f6aa:	ff e1                	jmpq   *%rcx
    f6ac:	cc                   	int3   
    f6ad:	cc                   	int3   
    f6ae:	cc                   	int3   
    f6af:	cc                   	int3   

000000000000f6b0 <_ZN4core3fmt5Write9write_fmt17h3c7cad8b01e4564fE>:
    f6b0:	48 83 ec 48          	sub    $0x48,%rsp
    f6b4:	0f ae e8             	lfence 
    f6b7:	48 89 7c 24 08       	mov    %rdi,0x8(%rsp)
    f6bc:	0f 10 06             	movups (%rsi),%xmm0
    f6bf:	0f 10 4e 10          	movups 0x10(%rsi),%xmm1
    f6c3:	0f 10 56 20          	movups 0x20(%rsi),%xmm2
    f6c7:	0f 29 54 24 30       	movaps %xmm2,0x30(%rsp)
    f6cc:	0f 29 4c 24 20       	movaps %xmm1,0x20(%rsp)
    f6d1:	0f 29 44 24 10       	movaps %xmm0,0x10(%rsp)
    f6d6:	48 8d 35 e3 3f 02 00 	lea    0x23fe3(%rip),%rsi        # 336c0 <_ZN9libunwind13DwarfFDECacheINS_17LocalAddressSpaceEE10_bufferEndE+0x58>
    f6dd:	48 8d 7c 24 08       	lea    0x8(%rsp),%rdi
    f6e2:	48 8d 54 24 10       	lea    0x10(%rsp),%rdx
    f6e7:	e8 04 ed 01 00       	callq  2e3f0 <_ZN4core3fmt5write17hafaacb107be14d75E>
    f6ec:	48 83 c4 48          	add    $0x48,%rsp
    f6f0:	59                   	pop    %rcx
    f6f1:	0f ae e8             	lfence 
    f6f4:	ff e1                	jmpq   *%rcx
    f6f6:	cc                   	int3   
    f6f7:	cc                   	int3   
    f6f8:	cc                   	int3   
    f6f9:	cc                   	int3   
    f6fa:	cc                   	int3   
    f6fb:	cc                   	int3   
    f6fc:	cc                   	int3   
    f6fd:	cc                   	int3   
    f6fe:	cc                   	int3   
    f6ff:	cc                   	int3   

000000000000f700 <_ZN4core3fmt5Write9write_fmt17h8435ee7f2e2c180fE>:
    f700:	48 83 ec 48          	sub    $0x48,%rsp
    f704:	0f ae e8             	lfence 
    f707:	48 89 7c 24 08       	mov    %rdi,0x8(%rsp)
    f70c:	0f 10 06             	movups (%rsi),%xmm0
    f70f:	0f 10 4e 10          	movups 0x10(%rsi),%xmm1
    f713:	0f 10 56 20          	movups 0x20(%rsi),%xmm2
    f717:	0f 29 54 24 30       	movaps %xmm2,0x30(%rsp)
    f71c:	0f 29 4c 24 20       	movaps %xmm1,0x20(%rsp)
    f721:	0f 29 44 24 10       	movaps %xmm0,0x10(%rsp)
    f726:	48 8d 35 c3 3f 02 00 	lea    0x23fc3(%rip),%rsi        # 336f0 <_ZN9libunwind13DwarfFDECacheINS_17LocalAddressSpaceEE10_bufferEndE+0x88>
    f72d:	48 8d 7c 24 08       	lea    0x8(%rsp),%rdi
    f732:	48 8d 54 24 10       	lea    0x10(%rsp),%rdx
    f737:	e8 b4 ec 01 00       	callq  2e3f0 <_ZN4core3fmt5write17hafaacb107be14d75E>
    f73c:	48 83 c4 48          	add    $0x48,%rsp
    f740:	59                   	pop    %rcx
    f741:	0f ae e8             	lfence 
    f744:	ff e1                	jmpq   *%rcx
    f746:	cc                   	int3   
    f747:	cc                   	int3   
    f748:	cc                   	int3   
    f749:	cc                   	int3   
    f74a:	cc                   	int3   
    f74b:	cc                   	int3   
    f74c:	cc                   	int3   
    f74d:	cc                   	int3   
    f74e:	cc                   	int3   
    f74f:	cc                   	int3   

000000000000f750 <_ZN4core3fmt5Write9write_fmt17h8b07d93d8a4d556fE>:
    f750:	48 83 ec 48          	sub    $0x48,%rsp
    f754:	0f ae e8             	lfence 
    f757:	48 89 7c 24 08       	mov    %rdi,0x8(%rsp)
    f75c:	0f 10 06             	movups (%rsi),%xmm0
    f75f:	0f 10 4e 10          	movups 0x10(%rsi),%xmm1
    f763:	0f 10 56 20          	movups 0x20(%rsi),%xmm2
    f767:	0f 29 54 24 30       	movaps %xmm2,0x30(%rsp)
    f76c:	0f 29 4c 24 20       	movaps %xmm1,0x20(%rsp)
    f771:	0f 29 44 24 10       	movaps %xmm0,0x10(%rsp)
    f776:	48 8d 35 a3 3f 02 00 	lea    0x23fa3(%rip),%rsi        # 33720 <_ZN9libunwind13DwarfFDECacheINS_17LocalAddressSpaceEE10_bufferEndE+0xb8>
    f77d:	48 8d 7c 24 08       	lea    0x8(%rsp),%rdi
    f782:	48 8d 54 24 10       	lea    0x10(%rsp),%rdx
    f787:	e8 64 ec 01 00       	callq  2e3f0 <_ZN4core3fmt5write17hafaacb107be14d75E>
    f78c:	48 83 c4 48          	add    $0x48,%rsp
    f790:	59                   	pop    %rcx
    f791:	0f ae e8             	lfence 
    f794:	ff e1                	jmpq   *%rcx
    f796:	cc                   	int3   
    f797:	cc                   	int3   
    f798:	cc                   	int3   
    f799:	cc                   	int3   
    f79a:	cc                   	int3   
    f79b:	cc                   	int3   
    f79c:	cc                   	int3   
    f79d:	cc                   	int3   
    f79e:	cc                   	int3   
    f79f:	cc                   	int3   

000000000000f7a0 <_ZN4core3fmt5Write9write_fmt17h8d813d436d5bca0cE>:
    f7a0:	48 83 ec 48          	sub    $0x48,%rsp
    f7a4:	0f ae e8             	lfence 
    f7a7:	48 89 7c 24 08       	mov    %rdi,0x8(%rsp)
    f7ac:	0f 10 06             	movups (%rsi),%xmm0
    f7af:	0f 10 4e 10          	movups 0x10(%rsi),%xmm1
    f7b3:	0f 10 56 20          	movups 0x20(%rsi),%xmm2
    f7b7:	0f 29 54 24 30       	movaps %xmm2,0x30(%rsp)
    f7bc:	0f 29 4c 24 20       	movaps %xmm1,0x20(%rsp)
    f7c1:	0f 29 44 24 10       	movaps %xmm0,0x10(%rsp)
    f7c6:	48 8d 35 83 3f 02 00 	lea    0x23f83(%rip),%rsi        # 33750 <_ZN9libunwind13DwarfFDECacheINS_17LocalAddressSpaceEE10_bufferEndE+0xe8>
    f7cd:	48 8d 7c 24 08       	lea    0x8(%rsp),%rdi
    f7d2:	48 8d 54 24 10       	lea    0x10(%rsp),%rdx
    f7d7:	e8 14 ec 01 00       	callq  2e3f0 <_ZN4core3fmt5write17hafaacb107be14d75E>
    f7dc:	48 83 c4 48          	add    $0x48,%rsp
    f7e0:	59                   	pop    %rcx
    f7e1:	0f ae e8             	lfence 
    f7e4:	ff e1                	jmpq   *%rcx
    f7e6:	cc                   	int3   
    f7e7:	cc                   	int3   
    f7e8:	cc                   	int3   
    f7e9:	cc                   	int3   
    f7ea:	cc                   	int3   
    f7eb:	cc                   	int3   
    f7ec:	cc                   	int3   
    f7ed:	cc                   	int3   
    f7ee:	cc                   	int3   
    f7ef:	cc                   	int3   

000000000000f7f0 <_ZN4core3ops8function6FnOnce40call_once$u7b$$u7b$vtable.shim$u7d$$u7d$17h0f96b05939cf2739E>:
    f7f0:	53                   	push   %rbx
    f7f1:	48 81 ec 90 00 00 00 	sub    $0x90,%rsp
    f7f8:	0f ae e8             	lfence 
    f7fb:	48 89 fb             	mov    %rdi,%rbx
    f7fe:	48 8b 07             	mov    (%rdi),%rax
    f801:	0f ae e8             	lfence 
    f804:	80 38 00             	cmpb   $0x0,(%rax)
    f807:	0f ae e8             	lfence 
    f80a:	75 20                	jne    f82c <_ZN4core3ops8function6FnOnce40call_once$u7b$$u7b$vtable.shim$u7d$$u7d$17h0f96b05939cf2739E+0x3c>
    f80c:	48 8b 43 08          	mov    0x8(%rbx),%rax
    f810:	0f ae e8             	lfence 
    f813:	48 83 38 64          	cmpq   $0x64,(%rax)
    f817:	0f ae e8             	lfence 
    f81a:	76 10                	jbe    f82c <_ZN4core3ops8function6FnOnce40call_once$u7b$$u7b$vtable.shim$u7d$$u7d$17h0f96b05939cf2739E+0x3c>
    f81c:	31 c0                	xor    %eax,%eax
    f81e:	48 81 c4 90 00 00 00 	add    $0x90,%rsp
    f825:	5b                   	pop    %rbx
    f826:	59                   	pop    %rcx
    f827:	0f ae e8             	lfence 
    f82a:	ff e1                	jmpq   *%rcx
    f82c:	48 8b 43 10          	mov    0x10(%rbx),%rax
    f830:	0f ae e8             	lfence 
    f833:	80 38 00             	cmpb   $0x0,(%rax)
    f836:	0f ae e8             	lfence 
    f839:	74 20                	je     f85b <_ZN4core3ops8function6FnOnce40call_once$u7b$$u7b$vtable.shim$u7d$$u7d$17h0f96b05939cf2739E+0x6b>
    f83b:	48 8b 43 20          	mov    0x20(%rbx),%rax
    f83f:	48 89 44 24 18       	mov    %rax,0x18(%rsp)
    f844:	48 c7 44 24 20 00 00 	movq   $0x0,0x20(%rsp)
    f84b:	00 00 
    f84d:	83 3e 01             	cmpl   $0x1,(%rsi)
    f850:	0f ae e8             	lfence 
    f853:	75 0f                	jne    f864 <_ZN4core3ops8function6FnOnce40call_once$u7b$$u7b$vtable.shim$u7d$$u7d$17h0f96b05939cf2739E+0x74>
    f855:	48 8b 76 08          	mov    0x8(%rsi),%rsi
    f859:	eb 15                	jmp    f870 <_ZN4core3ops8function6FnOnce40call_once$u7b$$u7b$vtable.shim$u7d$$u7d$17h0f96b05939cf2739E+0x80>
    f85b:	48 8b 4b 18          	mov    0x18(%rbx),%rcx
    f85f:	0f ae e8             	lfence 
    f862:	eb 52                	jmp    f8b6 <_ZN4core3ops8function6FnOnce40call_once$u7b$$u7b$vtable.shim$u7d$$u7d$17h0f96b05939cf2739E+0xc6>
    f864:	48 8b 7e 08          	mov    0x8(%rsi),%rdi
    f868:	e8 b3 85 01 00       	callq  27e20 <_Unwind_GetIP>
    f86d:	48 89 c6             	mov    %rax,%rsi
    f870:	48 c7 44 24 50 04 00 	movq   $0x4,0x50(%rsp)
    f877:	00 00 
    f879:	48 c7 44 24 28 02 00 	movq   $0x2,0x28(%rsp)
    f880:	00 00 
    f882:	c7 04 24 00 00 00 00 	movl   $0x0,(%rsp)
    f889:	48 8d 7c 24 18       	lea    0x18(%rsp),%rdi
    f88e:	48 8d 54 24 40       	lea    0x40(%rsp),%rdx
    f893:	48 8d 4c 24 28       	lea    0x28(%rsp),%rcx
    f898:	45 31 c0             	xor    %r8d,%r8d
    f89b:	e8 d0 d9 00 00       	callq  1d270 <_ZN3std12backtrace_rs5print17BacktraceFrameFmt21print_raw_with_column17h00cea25809d25ef9E>
    f8a0:	48 8b 4b 18          	mov    0x18(%rbx),%rcx
    f8a4:	0f ae e8             	lfence 
    f8a7:	88 01                	mov    %al,(%rcx)
    f8a9:	48 8b 44 24 18       	mov    0x18(%rsp),%rax
    f8ae:	0f ae e8             	lfence 
    f8b1:	48 83 40 08 01       	addq   $0x1,0x8(%rax)
    f8b6:	48 8b 43 08          	mov    0x8(%rbx),%rax
    f8ba:	0f ae e8             	lfence 
    f8bd:	48 83 00 01          	addq   $0x1,(%rax)
    f8c1:	80 39 00             	cmpb   $0x0,(%rcx)
    f8c4:	0f 94 c0             	sete   %al
    f8c7:	48 81 c4 90 00 00 00 	add    $0x90,%rsp
    f8ce:	5b                   	pop    %rbx
    f8cf:	59                   	pop    %rcx
    f8d0:	0f ae e8             	lfence 
    f8d3:	ff e1                	jmpq   *%rcx
    f8d5:	48 89 c3             	mov    %rax,%rbx
    f8d8:	48 8d 7c 24 18       	lea    0x18(%rsp),%rdi
    f8dd:	e8 3e 1b 00 00       	callq  11420 <_ZN4core3ptr64drop_in_place$LT$std..backtrace_rs..print..BacktraceFrameFmt$GT$17h8135d6a9781cb038E>
    f8e2:	48 89 df             	mov    %rbx,%rdi
    f8e5:	e8 16 83 01 00       	callq  27c00 <_Unwind_Resume>
    f8ea:	0f 0b                	ud2    
    f8ec:	cc                   	int3   
    f8ed:	cc                   	int3   
    f8ee:	cc                   	int3   
    f8ef:	cc                   	int3   

000000000000f8f0 <_ZN4core3ops8function6FnOnce40call_once$u7b$$u7b$vtable.shim$u7d$$u7d$17h1cdee5016406aab3E>:
    f8f0:	50                   	push   %rax
    f8f1:	0f ae e8             	lfence 
    f8f4:	48 8b 07             	mov    (%rdi),%rax
    f8f7:	48 89 04 24          	mov    %rax,(%rsp)
    f8fb:	48 89 e7             	mov    %rsp,%rdi
    f8fe:	e8 1d ac 00 00       	callq  1a520 <_ZN3std4sync4once4Once15call_once_force28_$u7b$$u7b$closure$u7d$$u7d$17h591b84dc2ed7d2baE>
    f903:	58                   	pop    %rax
    f904:	58                   	pop    %rax
    f905:	0f ae e8             	lfence 
    f908:	ff e0                	jmpq   *%rax
    f90a:	cc                   	int3   
    f90b:	cc                   	int3   
    f90c:	cc                   	int3   
    f90d:	cc                   	int3   
    f90e:	cc                   	int3   
    f90f:	cc                   	int3   

000000000000f910 <_ZN4core3ops8function6FnOnce40call_once$u7b$$u7b$vtable.shim$u7d$$u7d$17h3ced134a20f80513E>:
    f910:	50                   	push   %rax
    f911:	0f ae e8             	lfence 
    f914:	48 8b 07             	mov    (%rdi),%rax
    f917:	48 89 04 24          	mov    %rax,(%rsp)
    f91b:	48 89 e7             	mov    %rsp,%rdi
    f91e:	e8 cd a7 00 00       	callq  1a0f0 <_ZN3std4sync4once4Once9call_once28_$u7b$$u7b$closure$u7d$$u7d$17ha2f2dacf05941e31E>
    f923:	58                   	pop    %rax
    f924:	58                   	pop    %rax
    f925:	0f ae e8             	lfence 
    f928:	ff e0                	jmpq   *%rax
    f92a:	cc                   	int3   
    f92b:	cc                   	int3   
    f92c:	cc                   	int3   
    f92d:	cc                   	int3   
    f92e:	cc                   	int3   
    f92f:	cc                   	int3   

000000000000f930 <_ZN4core3ops8function6FnOnce40call_once$u7b$$u7b$vtable.shim$u7d$$u7d$17h55231d38238f4484E>:
    f930:	48 83 ec 58          	sub    $0x58,%rsp
    f934:	0f ae e8             	lfence 
    f937:	48 8b 0f             	mov    (%rdi),%rcx
    f93a:	0f ae e8             	lfence 
    f93d:	48 8b 01             	mov    (%rcx),%rax
    f940:	0f ae e8             	lfence 
    f943:	48 c7 01 00 00 00 00 	movq   $0x0,(%rcx)
    f94a:	48 85 c0             	test   %rax,%rax
    f94d:	74 6a                	je     f9b9 <_ZN4core3ops8function6FnOnce40call_once$u7b$$u7b$vtable.shim$u7d$$u7d$17h55231d38238f4484E+0x89>
    f94f:	0f 57 c0             	xorps  %xmm0,%xmm0
    f952:	0f 11 44 24 48       	movups %xmm0,0x48(%rsp)
    f957:	0f 10 44 24 30       	movups 0x30(%rsp),%xmm0
    f95c:	0f 29 04 24          	movaps %xmm0,(%rsp)
    f960:	0f 10 44 24 40       	movups 0x40(%rsp),%xmm0
    f965:	0f 29 44 24 10       	movaps %xmm0,0x10(%rsp)
    f96a:	48 8b 4c 24 50       	mov    0x50(%rsp),%rcx
    f96f:	48 89 4c 24 20       	mov    %rcx,0x20(%rsp)
    f974:	48 8b 00             	mov    (%rax),%rax
    f977:	0f ae e8             	lfence 
    f97a:	48 c7 00 01 00 00 00 	movq   $0x1,(%rax)
    f981:	48 c7 40 18 02 00 00 	movq   $0x2,0x18(%rax)
    f988:	00 
    f989:	0f 28 04 24          	movaps (%rsp),%xmm0
    f98d:	0f 28 4c 24 10       	movaps 0x10(%rsp),%xmm1
    f992:	0f 11 40 20          	movups %xmm0,0x20(%rax)
    f996:	0f 11 48 30          	movups %xmm1,0x30(%rax)
    f99a:	48 8b 4c 24 20       	mov    0x20(%rsp),%rcx
    f99f:	48 89 48 40          	mov    %rcx,0x40(%rax)
    f9a3:	c6 40 48 00          	movb   $0x0,0x48(%rax)
    f9a7:	48 c7 40 50 00 00 00 	movq   $0x0,0x50(%rax)
    f9ae:	00 
    f9af:	48 83 c4 58          	add    $0x58,%rsp
    f9b3:	58                   	pop    %rax
    f9b4:	0f ae e8             	lfence 
    f9b7:	ff e0                	jmpq   *%rax
    f9b9:	48 8d 3d 50 57 ff ff 	lea    -0xa8b0(%rip),%rdi        # 5110 <EH_FRM_LEN+0x4d0>
    f9c0:	48 8d 15 f9 46 02 00 	lea    0x246f9(%rip),%rdx        # 340c0 <_ZN9libunwind13DwarfFDECacheINS_17LocalAddressSpaceEE10_bufferEndE+0xa58>
    f9c7:	be 2b 00 00 00       	mov    $0x2b,%esi
    f9cc:	e8 af da 01 00       	callq  2d480 <_ZN4core9panicking5panic17h5ae2157404716702E>
    f9d1:	0f 0b                	ud2    
    f9d3:	cc                   	int3   
    f9d4:	cc                   	int3   
    f9d5:	cc                   	int3   
    f9d6:	cc                   	int3   
    f9d7:	cc                   	int3   
    f9d8:	cc                   	int3   
    f9d9:	cc                   	int3   
    f9da:	cc                   	int3   
    f9db:	cc                   	int3   
    f9dc:	cc                   	int3   
    f9dd:	cc                   	int3   
    f9de:	cc                   	int3   
    f9df:	cc                   	int3   

000000000000f9e0 <_ZN4core3ops8function6FnOnce40call_once$u7b$$u7b$vtable.shim$u7d$$u7d$17h8047daa803f618e7E>:
    f9e0:	41 56                	push   %r14
    f9e2:	53                   	push   %rbx
    f9e3:	48 83 ec 28          	sub    $0x28,%rsp
    f9e7:	0f ae e8             	lfence 
    f9ea:	48 89 f3             	mov    %rsi,%rbx
    f9ed:	49 89 fe             	mov    %rdi,%r14
    f9f0:	48 83 3a 01          	cmpq   $0x1,(%rdx)
    f9f4:	0f ae e8             	lfence 
    f9f7:	75 13                	jne    fa0c <_ZN4core3ops8function6FnOnce40call_once$u7b$$u7b$vtable.shim$u7d$$u7d$17h8047daa803f618e7E+0x2c>
    f9f9:	48 8d 3d af 5f ff ff 	lea    -0xa051(%rip),%rdi        # 59af <EH_FRM_LEN+0xd6f>
    fa00:	48 89 7c 24 10       	mov    %rdi,0x10(%rsp)
    fa05:	be 09 00 00 00       	mov    $0x9,%esi
    fa0a:	eb 42                	jmp    fa4e <_ZN4core3ops8function6FnOnce40call_once$u7b$$u7b$vtable.shim$u7d$$u7d$17h8047daa803f618e7E+0x6e>
    fa0c:	48 8b 72 08          	mov    0x8(%rdx),%rsi
    fa10:	48 8b 52 10          	mov    0x10(%rdx),%rdx
    fa14:	48 8d 7c 24 08       	lea    0x8(%rsp),%rdi
    fa19:	e8 92 08 02 00       	callq  302b0 <_ZN4core3str8converts9from_utf817h1f46aeaefb00ce91E>
    fa1e:	48 8b 44 24 08       	mov    0x8(%rsp),%rax
    fa23:	0f ae e8             	lfence 
    fa26:	be 09 00 00 00       	mov    $0x9,%esi
    fa2b:	83 f8 01             	cmp    $0x1,%eax
    fa2e:	74 05                	je     fa35 <_ZN4core3ops8function6FnOnce40call_once$u7b$$u7b$vtable.shim$u7d$$u7d$17h8047daa803f618e7E+0x55>
    fa30:	48 8b 74 24 18       	mov    0x18(%rsp),%rsi
    fa35:	48 83 f8 01          	cmp    $0x1,%rax
    fa39:	74 07                	je     fa42 <_ZN4core3ops8function6FnOnce40call_once$u7b$$u7b$vtable.shim$u7d$$u7d$17h8047daa803f618e7E+0x62>
    fa3b:	48 8b 7c 24 10       	mov    0x10(%rsp),%rdi
    fa40:	eb 07                	jmp    fa49 <_ZN4core3ops8function6FnOnce40call_once$u7b$$u7b$vtable.shim$u7d$$u7d$17h8047daa803f618e7E+0x69>
    fa42:	48 8d 3d 66 5f ff ff 	lea    -0xa09a(%rip),%rdi        # 59af <EH_FRM_LEN+0xd6f>
    fa49:	48 89 7c 24 10       	mov    %rdi,0x10(%rsp)
    fa4e:	48 89 74 24 18       	mov    %rsi,0x18(%rsp)
    fa53:	48 c7 44 24 08 00 00 	movq   $0x0,0x8(%rsp)
    fa5a:	00 00 
    fa5c:	e8 ff 0a 02 00       	callq  30560 <_ZN4core3str5lossy9Utf8Lossy10from_bytes17hd9ff8c5b904c8c3dE>
    fa61:	48 89 c7             	mov    %rax,%rdi
    fa64:	48 89 d6             	mov    %rdx,%rsi
    fa67:	48 89 da             	mov    %rbx,%rdx
    fa6a:	e8 81 0f 02 00       	callq  309f0 <_ZN66_$LT$core..str..lossy..Utf8Lossy$u20$as$u20$core..fmt..Display$GT$3fmt17h80d5f0ce613e8bc2E>
    fa6f:	89 c3                	mov    %eax,%ebx
    fa71:	49 8b 3e             	mov    (%r14),%rdi
    fa74:	0f ae e8             	lfence 
    fa77:	48 85 ff             	test   %rdi,%rdi
    fa7a:	74 16                	je     fa92 <_ZN4core3ops8function6FnOnce40call_once$u7b$$u7b$vtable.shim$u7d$$u7d$17h8047daa803f618e7E+0xb2>
    fa7c:	49 8b 76 08          	mov    0x8(%r14),%rsi
    fa80:	0f ae e8             	lfence 
    fa83:	48 85 f6             	test   %rsi,%rsi
    fa86:	74 0a                	je     fa92 <_ZN4core3ops8function6FnOnce40call_once$u7b$$u7b$vtable.shim$u7d$$u7d$17h8047daa803f618e7E+0xb2>
    fa88:	ba 01 00 00 00       	mov    $0x1,%edx
    fa8d:	e8 ee f1 ff ff       	callq  ec80 <__rust_dealloc>
    fa92:	89 d8                	mov    %ebx,%eax
    fa94:	48 83 c4 28          	add    $0x28,%rsp
    fa98:	5b                   	pop    %rbx
    fa99:	41 5e                	pop    %r14
    fa9b:	59                   	pop    %rcx
    fa9c:	0f ae e8             	lfence 
    fa9f:	ff e1                	jmpq   *%rcx
    faa1:	48 89 c3             	mov    %rax,%rbx
    faa4:	eb 0d                	jmp    fab3 <_ZN4core3ops8function6FnOnce40call_once$u7b$$u7b$vtable.shim$u7d$$u7d$17h8047daa803f618e7E+0xd3>
    faa6:	48 89 c3             	mov    %rax,%rbx
    faa9:	48 8d 7c 24 08       	lea    0x8(%rsp),%rdi
    faae:	e8 4d 18 00 00       	callq  11300 <_ZN4core3ptr62drop_in_place$LT$alloc..borrow..Cow$LT$std..path..Path$GT$$GT$17hbbcd0b686fec81a3E>
    fab3:	4c 89 f7             	mov    %r14,%rdi
    fab6:	e8 d5 1d 00 00       	callq  11890 <_ZN4core3ptr88drop_in_place$LT$std..sys_common..backtrace.._print_fmt..$u7b$$u7b$closure$u7d$$u7d$$GT$17h4cf2a245055bf59aE>
    fabb:	48 89 df             	mov    %rbx,%rdi
    fabe:	e8 3d 81 01 00       	callq  27c00 <_Unwind_Resume>
    fac3:	0f 0b                	ud2    
    fac5:	cc                   	int3   
    fac6:	cc                   	int3   
    fac7:	cc                   	int3   
    fac8:	cc                   	int3   
    fac9:	cc                   	int3   
    faca:	cc                   	int3   
    facb:	cc                   	int3   
    facc:	cc                   	int3   
    facd:	cc                   	int3   
    face:	cc                   	int3   
    facf:	cc                   	int3   

000000000000fad0 <_ZN4core3ops8function6FnOnce40call_once$u7b$$u7b$vtable.shim$u7d$$u7d$17ha86dc2434bb35596E>:
    fad0:	53                   	push   %rbx
    fad1:	48 83 ec 30          	sub    $0x30,%rsp
    fad5:	48 8b 05 14 5b 02 00 	mov    0x25b14(%rip),%rax        # 355f0 <_ZN3std2io5stdio6stdout8INSTANCE17hd97faf74a5c8e57bE>
    fadc:	0f ae e8             	lfence 
    fadf:	48 83 f8 03          	cmp    $0x3,%rax
    fae3:	75 36                	jne    fb1b <_ZN4core3ops8function6FnOnce40call_once$u7b$$u7b$vtable.shim$u7d$$u7d$17ha86dc2434bb35596E+0x4b>
    fae5:	b1 01                	mov    $0x1,%cl
    fae7:	31 c0                	xor    %eax,%eax
    fae9:	f0 0f b0 0d 4f 5b 02 	lock cmpxchg %cl,0x25b4f(%rip)        # 35640 <_ZN3std2io5stdio6stdout8INSTANCE17hd97faf74a5c8e57bE+0x50>
    faf0:	00 
    faf1:	0f ae e8             	lfence 
    faf4:	75 25                	jne    fb1b <_ZN4core3ops8function6FnOnce40call_once$u7b$$u7b$vtable.shim$u7d$$u7d$17ha86dc2434bb35596E+0x4b>
    faf6:	48 83 3d 32 5b 02 00 	cmpq   $0x0,0x25b32(%rip)        # 35630 <_ZN3std2io5stdio6stdout8INSTANCE17hd97faf74a5c8e57bE+0x40>
    fafd:	00 
    fafe:	0f ae e8             	lfence 
    fb01:	74 23                	je     fb26 <_ZN4core3ops8function6FnOnce40call_once$u7b$$u7b$vtable.shim$u7d$$u7d$17ha86dc2434bb35596E+0x56>
    fb03:	e8 5d f4 ff ff       	callq  ef65 <get_tcs_addr>
    fb08:	48 39 05 21 5b 02 00 	cmp    %rax,0x25b21(%rip)        # 35630 <_ZN3std2io5stdio6stdout8INSTANCE17hd97faf74a5c8e57bE+0x40>
    fb0f:	0f ae e8             	lfence 
    fb12:	74 12                	je     fb26 <_ZN4core3ops8function6FnOnce40call_once$u7b$$u7b$vtable.shim$u7d$$u7d$17ha86dc2434bb35596E+0x56>
    fb14:	c6 05 25 5b 02 00 00 	movb   $0x0,0x25b25(%rip)        # 35640 <_ZN3std2io5stdio6stdout8INSTANCE17hd97faf74a5c8e57bE+0x50>
    fb1b:	48 83 c4 30          	add    $0x30,%rsp
    fb1f:	5b                   	pop    %rbx
    fb20:	58                   	pop    %rax
    fb21:	0f ae e8             	lfence 
    fb24:	ff e0                	jmpq   *%rax
    fb26:	e8 3a f4 ff ff       	callq  ef65 <get_tcs_addr>
    fb2b:	48 89 05 fe 5a 02 00 	mov    %rax,0x25afe(%rip)        # 35630 <_ZN3std2io5stdio6stdout8INSTANCE17hd97faf74a5c8e57bE+0x40>
    fb32:	48 83 05 fe 5a 02 00 	addq   $0x1,0x25afe(%rip)        # 35638 <_ZN3std2io5stdio6stdout8INSTANCE17hd97faf74a5c8e57bE+0x48>
    fb39:	01 
    fb3a:	c6 05 ff 5a 02 00 00 	movb   $0x0,0x25aff(%rip)        # 35640 <_ZN3std2io5stdio6stdout8INSTANCE17hd97faf74a5c8e57bE+0x50>
    fb41:	48 c7 44 24 10 01 00 	movq   $0x1,0x10(%rsp)
    fb48:	00 00 
    fb4a:	0f 57 c0             	xorps  %xmm0,%xmm0
    fb4d:	0f 11 44 24 18       	movups %xmm0,0x18(%rsp)
    fb52:	66 c7 44 24 28 01 00 	movw   $0x1,0x28(%rsp)
    fb59:	48 83 3d e7 5a 02 00 	cmpq   $0x0,0x25ae7(%rip)        # 35648 <_ZN3std2io5stdio6stdout8INSTANCE17hd97faf74a5c8e57bE+0x58>
    fb60:	00 
    fb61:	0f ae e8             	lfence 
    fb64:	75 48                	jne    fbae <_ZN4core3ops8function6FnOnce40call_once$u7b$$u7b$vtable.shim$u7d$$u7d$17ha86dc2434bb35596E+0xde>
    fb66:	48 c7 05 d7 5a 02 00 	movq   $0xffffffffffffffff,0x25ad7(%rip)        # 35648 <_ZN3std2io5stdio6stdout8INSTANCE17hd97faf74a5c8e57bE+0x58>
    fb6d:	ff ff ff ff 
    fb71:	48 8d 3d d8 5a 02 00 	lea    0x25ad8(%rip),%rdi        # 35650 <_ZN3std2io5stdio6stdout8INSTANCE17hd97faf74a5c8e57bE+0x60>
    fb78:	e8 63 1f 00 00       	callq  11ae0 <_ZN4core3ptr95drop_in_place$LT$std..io..buffered..linewriter..LineWriter$LT$std..io..stdio..StdoutRaw$GT$$GT$17hfccf0c77de56bc42E>
    fb7d:	0f 10 44 24 10       	movups 0x10(%rsp),%xmm0
    fb82:	0f 10 4c 24 20       	movups 0x20(%rsp),%xmm1
    fb87:	0f 11 0d d2 5a 02 00 	movups %xmm1,0x25ad2(%rip)        # 35660 <_ZN3std2io5stdio6stdout8INSTANCE17hd97faf74a5c8e57bE+0x70>
    fb8e:	0f 11 05 bb 5a 02 00 	movups %xmm0,0x25abb(%rip)        # 35650 <_ZN3std2io5stdio6stdout8INSTANCE17hd97faf74a5c8e57bE+0x60>
    fb95:	48 83 05 ab 5a 02 00 	addq   $0x1,0x25aab(%rip)        # 35648 <_ZN3std2io5stdio6stdout8INSTANCE17hd97faf74a5c8e57bE+0x58>
    fb9c:	01 
    fb9d:	48 8d 3d 54 5a 02 00 	lea    0x25a54(%rip),%rdi        # 355f8 <_ZN3std2io5stdio6stdout8INSTANCE17hd97faf74a5c8e57bE+0x8>
    fba4:	48 83 c4 30          	add    $0x30,%rsp
    fba8:	5b                   	pop    %rbx
    fba9:	e9 f2 07 01 00       	jmpq   203a0 <_ZN3std3sys3sgx5mutex14ReentrantMutex6unlock17ha5740d567c45a06cE>
    fbae:	48 8d 3d 9b 53 ff ff 	lea    -0xac65(%rip),%rdi        # 4f50 <EH_FRM_LEN+0x310>
    fbb5:	48 8d 0d 4c 3c 02 00 	lea    0x23c4c(%rip),%rcx        # 33808 <_ZN9libunwind13DwarfFDECacheINS_17LocalAddressSpaceEE10_bufferEndE+0x1a0>
    fbbc:	4c 8d 05 6d 3f 02 00 	lea    0x23f6d(%rip),%r8        # 33b30 <_ZN9libunwind13DwarfFDECacheINS_17LocalAddressSpaceEE10_bufferEndE+0x4c8>
    fbc3:	48 8d 54 24 08       	lea    0x8(%rsp),%rdx
    fbc8:	be 10 00 00 00       	mov    $0x10,%esi
    fbcd:	e8 6e db 01 00       	callq  2d740 <_ZN4core6result13unwrap_failed17hc824b998b9d0c2d8E>
    fbd2:	0f 0b                	ud2    
    fbd4:	48 89 c3             	mov    %rax,%rbx
    fbd7:	0f 10 44 24 10       	movups 0x10(%rsp),%xmm0
    fbdc:	0f 10 4c 24 20       	movups 0x20(%rsp),%xmm1
    fbe1:	0f 11 0d 78 5a 02 00 	movups %xmm1,0x25a78(%rip)        # 35660 <_ZN3std2io5stdio6stdout8INSTANCE17hd97faf74a5c8e57bE+0x70>
    fbe8:	0f 11 05 61 5a 02 00 	movups %xmm0,0x25a61(%rip)        # 35650 <_ZN3std2io5stdio6stdout8INSTANCE17hd97faf74a5c8e57bE+0x60>
    fbef:	48 8d 3d 52 5a 02 00 	lea    0x25a52(%rip),%rdi        # 35648 <_ZN3std2io5stdio6stdout8INSTANCE17hd97faf74a5c8e57bE+0x58>
    fbf6:	e8 e5 04 00 00       	callq  100e0 <_ZN4core3ptr115drop_in_place$LT$core..cell..RefMut$LT$core..option..Option$LT$std..sys_common..thread_info..ThreadInfo$GT$$GT$$GT$17hf10c518667c777c6E>
    fbfb:	eb 0d                	jmp    fc0a <_ZN4core3ops8function6FnOnce40call_once$u7b$$u7b$vtable.shim$u7d$$u7d$17ha86dc2434bb35596E+0x13a>
    fbfd:	48 89 c3             	mov    %rax,%rbx
    fc00:	48 8d 7c 24 10       	lea    0x10(%rsp),%rdi
    fc05:	e8 d6 1e 00 00       	callq  11ae0 <_ZN4core3ptr95drop_in_place$LT$std..io..buffered..linewriter..LineWriter$LT$std..io..stdio..StdoutRaw$GT$$GT$17hfccf0c77de56bc42E>
    fc0a:	48 8d 3d e7 59 02 00 	lea    0x259e7(%rip),%rdi        # 355f8 <_ZN3std2io5stdio6stdout8INSTANCE17hd97faf74a5c8e57bE+0x8>
    fc11:	e8 4a 09 00 00       	callq  10560 <_ZN4core3ptr175drop_in_place$LT$std..sys_common..remutex..ReentrantMutexGuard$LT$core..cell..RefCell$LT$std..io..buffered..linewriter..LineWriter$LT$std..io..stdio..StdoutRaw$GT$$GT$$GT$$GT$17h9ac9adf0774c9417E>
    fc16:	48 89 df             	mov    %rbx,%rdi
    fc19:	e8 e2 7f 01 00       	callq  27c00 <_Unwind_Resume>
    fc1e:	0f 0b                	ud2    

000000000000fc20 <_ZN4core3ops8function6FnOnce40call_once$u7b$$u7b$vtable.shim$u7d$$u7d$17hb300ea5f274f8de4E>:
    fc20:	50                   	push   %rax
    fc21:	0f ae e8             	lfence 
    fc24:	48 8b 07             	mov    (%rdi),%rax
    fc27:	48 89 04 24          	mov    %rax,(%rsp)
    fc2b:	48 89 e7             	mov    %rsp,%rdi
    fc2e:	e8 1d a7 00 00       	callq  1a350 <_ZN3std4sync4once4Once9call_once28_$u7b$$u7b$closure$u7d$$u7d$17hfca3ebd17f26956dE>
    fc33:	58                   	pop    %rax
    fc34:	58                   	pop    %rax
    fc35:	0f ae e8             	lfence 
    fc38:	ff e0                	jmpq   *%rax
    fc3a:	cc                   	int3   
    fc3b:	cc                   	int3   
    fc3c:	cc                   	int3   
    fc3d:	cc                   	int3   
    fc3e:	cc                   	int3   
    fc3f:	cc                   	int3   

000000000000fc40 <_ZN4core3ptr100drop_in_place$LT$$RF$mut$u20$std..io..Write..write_fmt..Adaptor$LT$alloc..vec..Vec$LT$u8$GT$$GT$$GT$17h646b6c0bcfeec645E>:
    fc40:	58                   	pop    %rax
    fc41:	0f ae e8             	lfence 
    fc44:	ff e0                	jmpq   *%rax
    fc46:	cc                   	int3   
    fc47:	cc                   	int3   
    fc48:	cc                   	int3   
    fc49:	cc                   	int3   
    fc4a:	cc                   	int3   
    fc4b:	cc                   	int3   
    fc4c:	cc                   	int3   
    fc4d:	cc                   	int3   
    fc4e:	cc                   	int3   
    fc4f:	cc                   	int3   

000000000000fc50 <_ZN4core3ptr101drop_in_place$LT$alloc..sync..Arc$LT$std..sync..mutex..Mutex$LT$alloc..vec..Vec$LT$u8$GT$$GT$$GT$$GT$17h8c4e4d9fdcb51956E>:
    fc50:	0f ae e8             	lfence 
    fc53:	48 8b 07             	mov    (%rdi),%rax
    fc56:	0f ae e8             	lfence 
    fc59:	f0 48 83 28 01       	lock subq $0x1,(%rax)
    fc5e:	0f ae e8             	lfence 
    fc61:	75 08                	jne    fc6b <_ZN4core3ptr101drop_in_place$LT$alloc..sync..Arc$LT$std..sync..mutex..Mutex$LT$alloc..vec..Vec$LT$u8$GT$$GT$$GT$$GT$17h8c4e4d9fdcb51956E+0x1b>
    fc63:	48 8b 3f             	mov    (%rdi),%rdi
    fc66:	e9 d5 2a 00 00       	jmpq   12740 <_ZN5alloc4sync12Arc$LT$T$GT$9drop_slow17h00035ed6738a8076E>
    fc6b:	58                   	pop    %rax
    fc6c:	0f ae e8             	lfence 
    fc6f:	ff e0                	jmpq   *%rax
    fc71:	cc                   	int3   
    fc72:	cc                   	int3   
    fc73:	cc                   	int3   
    fc74:	cc                   	int3   
    fc75:	cc                   	int3   
    fc76:	cc                   	int3   
    fc77:	cc                   	int3   
    fc78:	cc                   	int3   
    fc79:	cc                   	int3   
    fc7a:	cc                   	int3   
    fc7b:	cc                   	int3   
    fc7c:	cc                   	int3   
    fc7d:	cc                   	int3   
    fc7e:	cc                   	int3   
    fc7f:	cc                   	int3   

000000000000fc80 <_ZN4core3ptr101drop_in_place$LT$std..sync..mutex..MutexGuard$LT$std..sync..mpsc..sync..State$LT$$LP$$RP$$GT$$GT$$GT$17h7cd1170d50967928E>:
    fc80:	53                   	push   %rbx
    fc81:	48 83 ec 40          	sub    $0x40,%rsp
    fc85:	0f ae e8             	lfence 
    fc88:	48 8b 1f             	mov    (%rdi),%rbx
    fc8b:	0f ae e8             	lfence 
    fc8e:	80 7f 08 00          	cmpb   $0x0,0x8(%rdi)
    fc92:	0f ae e8             	lfence 
    fc95:	75 19                	jne    fcb0 <_ZN4core3ptr101drop_in_place$LT$std..sync..mutex..MutexGuard$LT$std..sync..mpsc..sync..State$LT$$LP$$RP$$GT$$GT$$GT$17h7cd1170d50967928E+0x30>
    fc97:	48 8d 05 62 5a 02 00 	lea    0x25a62(%rip),%rax        # 35700 <_ZN3std9panicking11panic_count18GLOBAL_PANIC_COUNT17h2b263af3ca0d9d69E>
    fc9e:	0f ae e8             	lfence 
    fca1:	48 8b 00             	mov    (%rax),%rax
    fca4:	0f ae e8             	lfence 
    fca7:	48 85 c0             	test   %rax,%rax
    fcaa:	0f 85 62 01 00 00    	jne    fe12 <_ZN4core3ptr101drop_in_place$LT$std..sync..mutex..MutexGuard$LT$std..sync..mpsc..sync..State$LT$$LP$$RP$$GT$$GT$$GT$17h7cd1170d50967928E+0x192>
    fcb0:	48 8b 0b             	mov    (%rbx),%rcx
    fcb3:	0f ae e8             	lfence 
    fcb6:	b2 01                	mov    $0x1,%dl
    fcb8:	0f 1f 84 00 00 00 00 	nopl   0x0(%rax,%rax,1)
    fcbf:	00 
    fcc0:	31 c0                	xor    %eax,%eax
    fcc2:	f0 0f b0 51 40       	lock cmpxchg %dl,0x40(%rcx)
    fcc7:	0f ae e8             	lfence 
    fcca:	75 06                	jne    fcd2 <_ZN4core3ptr101drop_in_place$LT$std..sync..mutex..MutexGuard$LT$std..sync..mpsc..sync..State$LT$$LP$$RP$$GT$$GT$$GT$17h7cd1170d50967928E+0x52>
    fccc:	eb 11                	jmp    fcdf <_ZN4core3ptr101drop_in_place$LT$std..sync..mutex..MutexGuard$LT$std..sync..mpsc..sync..State$LT$$LP$$RP$$GT$$GT$$GT$17h7cd1170d50967928E+0x5f>
    fcce:	66 90                	xchg   %ax,%ax
    fcd0:	f3 90                	pause  
    fcd2:	0f b6 41 40          	movzbl 0x40(%rcx),%eax
    fcd6:	0f ae e8             	lfence 
    fcd9:	84 c0                	test   %al,%al
    fcdb:	75 f3                	jne    fcd0 <_ZN4core3ptr101drop_in_place$LT$std..sync..mutex..MutexGuard$LT$std..sync..mpsc..sync..State$LT$$LP$$RP$$GT$$GT$$GT$17h7cd1170d50967928E+0x50>
    fcdd:	eb e1                	jmp    fcc0 <_ZN4core3ptr101drop_in_place$LT$std..sync..mutex..MutexGuard$LT$std..sync..mpsc..sync..State$LT$$LP$$RP$$GT$$GT$$GT$17h7cd1170d50967928E+0x40>
    fcdf:	48 89 4c 24 08       	mov    %rcx,0x8(%rsp)
    fce4:	48 83 79 18 02       	cmpq   $0x2,0x18(%rcx)
    fce9:	0f ae e8             	lfence 
    fcec:	75 19                	jne    fd07 <_ZN4core3ptr101drop_in_place$LT$std..sync..mutex..MutexGuard$LT$std..sync..mpsc..sync..State$LT$$LP$$RP$$GT$$GT$$GT$17h7cd1170d50967928E+0x87>
    fcee:	48 8d 41 08          	lea    0x8(%rcx),%rax
    fcf2:	48 c7 41 18 00 00 00 	movq   $0x0,0x18(%rcx)
    fcf9:	00 
    fcfa:	48 89 01             	mov    %rax,(%rcx)
    fcfd:	48 89 41 08          	mov    %rax,0x8(%rcx)
    fd01:	48 89 41 10          	mov    %rax,0x10(%rcx)
    fd05:	eb 68                	jmp    fd6f <_ZN4core3ptr101drop_in_place$LT$std..sync..mutex..MutexGuard$LT$std..sync..mpsc..sync..State$LT$$LP$$RP$$GT$$GT$$GT$17h7cd1170d50967928E+0xef>
    fd07:	48 8b 01             	mov    (%rcx),%rax
    fd0a:	0f ae e8             	lfence 
    fd0d:	48 8b 10             	mov    (%rax),%rdx
    fd10:	0f ae e8             	lfence 
    fd13:	48 39 c2             	cmp    %rax,%rdx
    fd16:	74 57                	je     fd6f <_ZN4core3ptr101drop_in_place$LT$std..sync..mutex..MutexGuard$LT$std..sync..mpsc..sync..State$LT$$LP$$RP$$GT$$GT$$GT$17h7cd1170d50967928E+0xef>
    fd18:	48 8b 32             	mov    (%rdx),%rsi
    fd1b:	0f ae e8             	lfence 
    fd1e:	48 89 30             	mov    %rsi,(%rax)
    fd21:	48 8b 01             	mov    (%rcx),%rax
    fd24:	48 89 46 08          	mov    %rax,0x8(%rsi)
    fd28:	48 c7 02 08 00 00 00 	movq   $0x8,(%rdx)
    fd2f:	48 c7 42 08 08 00 00 	movq   $0x8,0x8(%rdx)
    fd36:	00 
    fd37:	83 7a 10 01          	cmpl   $0x1,0x10(%rdx)
    fd3b:	0f ae e8             	lfence 
    fd3e:	0f 85 23 01 00 00    	jne    fe67 <_ZN4core3ptr101drop_in_place$LT$std..sync..mutex..MutexGuard$LT$std..sync..mpsc..sync..State$LT$$LP$$RP$$GT$$GT$$GT$17h7cd1170d50967928E+0x1e7>
    fd44:	b1 01                	mov    $0x1,%cl
    fd46:	66 2e 0f 1f 84 00 00 	nopw   %cs:0x0(%rax,%rax,1)
    fd4d:	00 00 00 
    fd50:	31 c0                	xor    %eax,%eax
    fd52:	f0 0f b0 4a 28       	lock cmpxchg %cl,0x28(%rdx)
    fd57:	0f ae e8             	lfence 
    fd5a:	75 06                	jne    fd62 <_ZN4core3ptr101drop_in_place$LT$std..sync..mutex..MutexGuard$LT$std..sync..mpsc..sync..State$LT$$LP$$RP$$GT$$GT$$GT$17h7cd1170d50967928E+0xe2>
    fd5c:	eb 5e                	jmp    fdbc <_ZN4core3ptr101drop_in_place$LT$std..sync..mutex..MutexGuard$LT$std..sync..mpsc..sync..State$LT$$LP$$RP$$GT$$GT$$GT$17h7cd1170d50967928E+0x13c>
    fd5e:	66 90                	xchg   %ax,%ax
    fd60:	f3 90                	pause  
    fd62:	0f b6 42 28          	movzbl 0x28(%rdx),%eax
    fd66:	0f ae e8             	lfence 
    fd69:	84 c0                	test   %al,%al
    fd6b:	75 f3                	jne    fd60 <_ZN4core3ptr101drop_in_place$LT$std..sync..mutex..MutexGuard$LT$std..sync..mpsc..sync..State$LT$$LP$$RP$$GT$$GT$$GT$17h7cd1170d50967928E+0xe0>
    fd6d:	eb e1                	jmp    fd50 <_ZN4core3ptr101drop_in_place$LT$std..sync..mutex..MutexGuard$LT$std..sync..mpsc..sync..State$LT$$LP$$RP$$GT$$GT$$GT$17h7cd1170d50967928E+0xd0>
    fd6f:	48 39 40 08          	cmp    %rax,0x8(%rax)
    fd73:	0f ae e8             	lfence 
    fd76:	0f 85 ac 00 00 00    	jne    fe28 <_ZN4core3ptr101drop_in_place$LT$std..sync..mutex..MutexGuard$LT$std..sync..mpsc..sync..State$LT$$LP$$RP$$GT$$GT$$GT$17h7cd1170d50967928E+0x1a8>
    fd7c:	48 89 4c 24 18       	mov    %rcx,0x18(%rsp)
    fd81:	48 c7 44 24 10 01 00 	movq   $0x1,0x10(%rsp)
    fd88:	00 00 
    fd8a:	c6 41 38 00          	movb   $0x0,0x38(%rcx)
    fd8e:	c6 41 40 00          	movb   $0x0,0x40(%rcx)
    fd92:	48 8b 44 24 10       	mov    0x10(%rsp),%rax
    fd97:	0f ae e8             	lfence 
    fd9a:	48 83 f8 01          	cmp    $0x1,%rax
    fd9e:	74 11                	je     fdb1 <_ZN4core3ptr101drop_in_place$LT$std..sync..mutex..MutexGuard$LT$std..sync..mpsc..sync..State$LT$$LP$$RP$$GT$$GT$$GT$17h7cd1170d50967928E+0x131>
    fda0:	48 85 c0             	test   %rax,%rax
    fda3:	74 58                	je     fdfd <_ZN4core3ptr101drop_in_place$LT$std..sync..mutex..MutexGuard$LT$std..sync..mpsc..sync..State$LT$$LP$$RP$$GT$$GT$$GT$17h7cd1170d50967928E+0x17d>
    fda5:	48 8b 44 24 18       	mov    0x18(%rsp),%rax
    fdaa:	0f ae e8             	lfence 
    fdad:	c6 40 40 00          	movb   $0x0,0x40(%rax)
    fdb1:	48 83 c4 40          	add    $0x40,%rsp
    fdb5:	5b                   	pop    %rbx
    fdb6:	58                   	pop    %rax
    fdb7:	0f ae e8             	lfence 
    fdba:	ff e0                	jmpq   *%rax
    fdbc:	48 8b 42 18          	mov    0x18(%rdx),%rax
    fdc0:	c6 42 20 01          	movb   $0x1,0x20(%rdx)
    fdc4:	48 8b 4c 24 08       	mov    0x8(%rsp),%rcx
    fdc9:	48 89 4c 24 18       	mov    %rcx,0x18(%rsp)
    fdce:	48 c7 44 24 20 00 00 	movq   $0x0,0x20(%rsp)
    fdd5:	00 00 
    fdd7:	48 89 44 24 28       	mov    %rax,0x28(%rsp)
    fddc:	48 c7 44 24 10 00 00 	movq   $0x0,0x10(%rsp)
    fde3:	00 00 
    fde5:	c6 42 28 00          	movb   $0x0,0x28(%rdx)
    fde9:	83 7c 24 10 01       	cmpl   $0x1,0x10(%rsp)
    fdee:	0f ae e8             	lfence 
    fdf1:	75 0a                	jne    fdfd <_ZN4core3ptr101drop_in_place$LT$std..sync..mutex..MutexGuard$LT$std..sync..mpsc..sync..State$LT$$LP$$RP$$GT$$GT$$GT$17h7cd1170d50967928E+0x17d>
    fdf3:	48 8b 4c 24 18       	mov    0x18(%rsp),%rcx
    fdf8:	0f ae e8             	lfence 
    fdfb:	eb 8d                	jmp    fd8a <_ZN4core3ptr101drop_in_place$LT$std..sync..mutex..MutexGuard$LT$std..sync..mpsc..sync..State$LT$$LP$$RP$$GT$$GT$$GT$17h7cd1170d50967928E+0x10a>
    fdfd:	48 8d 7c 24 18       	lea    0x18(%rsp),%rdi
    fe02:	e8 e9 02 00 00       	callq  100f0 <_ZN4core3ptr124drop_in_place$LT$std..sys..sgx..waitqueue..WaitGuard$LT$core..option..Option$LT$core..num..nonzero..NonZeroUsize$GT$$GT$$GT$17h627b1f298d883cd8E>
    fe07:	48 83 c4 40          	add    $0x40,%rsp
    fe0b:	5b                   	pop    %rbx
    fe0c:	58                   	pop    %rax
    fe0d:	0f ae e8             	lfence 
    fe10:	ff e0                	jmpq   *%rax
    fe12:	e8 39 c7 00 00       	callq  1c550 <_ZN3std9panicking11panic_count17is_zero_slow_path17h333a51b23a6aaf9fE>
    fe17:	84 c0                	test   %al,%al
    fe19:	0f 85 91 fe ff ff    	jne    fcb0 <_ZN4core3ptr101drop_in_place$LT$std..sync..mutex..MutexGuard$LT$std..sync..mpsc..sync..State$LT$$LP$$RP$$GT$$GT$$GT$17h7cd1170d50967928E+0x30>
    fe1f:	c6 43 08 01          	movb   $0x1,0x8(%rbx)
    fe23:	e9 88 fe ff ff       	jmpq   fcb0 <_ZN4core3ptr101drop_in_place$LT$std..sync..mutex..MutexGuard$LT$std..sync..mpsc..sync..State$LT$$LP$$RP$$GT$$GT$$GT$17h7cd1170d50967928E+0x30>
    fe28:	48 8d 05 c9 4a 02 00 	lea    0x24ac9(%rip),%rax        # 348f8 <_ZN9libunwind13DwarfFDECacheINS_17LocalAddressSpaceEE10_bufferEndE+0x1290>
    fe2f:	48 89 44 24 10       	mov    %rax,0x10(%rsp)
    fe34:	48 c7 44 24 18 01 00 	movq   $0x1,0x18(%rsp)
    fe3b:	00 00 
    fe3d:	48 c7 44 24 20 00 00 	movq   $0x0,0x20(%rsp)
    fe44:	00 00 
    fe46:	48 8d 05 5b 51 ff ff 	lea    -0xaea5(%rip),%rax        # 4fa8 <EH_FRM_LEN+0x368>
    fe4d:	48 89 44 24 30       	mov    %rax,0x30(%rsp)
    fe52:	48 c7 44 24 38 00 00 	movq   $0x0,0x38(%rsp)
    fe59:	00 00 
    fe5b:	48 8d 7c 24 10       	lea    0x10(%rsp),%rdi
    fe60:	e8 9b b6 00 00       	callq  1b500 <_ZN3std10sys_common4util5abort17h9acf05c9cc235988E>
    fe65:	eb 18                	jmp    fe7f <_ZN4core3ptr101drop_in_place$LT$std..sync..mutex..MutexGuard$LT$std..sync..mpsc..sync..State$LT$$LP$$RP$$GT$$GT$$GT$17h7cd1170d50967928E+0x1ff>
    fe67:	48 8d 3d a2 52 ff ff 	lea    -0xad5e(%rip),%rdi        # 5110 <EH_FRM_LEN+0x4d0>
    fe6e:	48 8d 15 ab 4a 02 00 	lea    0x24aab(%rip),%rdx        # 34920 <_ZN9libunwind13DwarfFDECacheINS_17LocalAddressSpaceEE10_bufferEndE+0x12b8>
    fe75:	be 2b 00 00 00       	mov    $0x2b,%esi
    fe7a:	e8 01 d6 01 00       	callq  2d480 <_ZN4core9panicking5panic17h5ae2157404716702E>
    fe7f:	0f 0b                	ud2    
    fe81:	48 89 c3             	mov    %rax,%rbx
    fe84:	48 8d 7c 24 08       	lea    0x8(%rsp),%rdi
    fe89:	e8 a2 04 00 00       	callq  10330 <_ZN4core3ptr131drop_in_place$LT$std..sys..sgx..waitqueue..spin_mutex..SpinMutexGuard$LT$std..sys..sgx..waitqueue..WaitVariable$LT$bool$GT$$GT$$GT$17hbf0ae2ed76bae72bE>
    fe8e:	48 89 df             	mov    %rbx,%rdi
    fe91:	e8 6a 7d 01 00       	callq  27c00 <_Unwind_Resume>
    fe96:	0f 0b                	ud2    
    fe98:	cc                   	int3   
    fe99:	cc                   	int3   
    fe9a:	cc                   	int3   
    fe9b:	cc                   	int3   
    fe9c:	cc                   	int3   
    fe9d:	cc                   	int3   
    fe9e:	cc                   	int3   
    fe9f:	cc                   	int3   

000000000000fea0 <_ZN4core3ptr102drop_in_place$LT$core..cell..UnsafeCell$LT$std..sync..mpsc..oneshot..MyUpgrade$LT$$LP$$RP$$GT$$GT$$GT$17hb12c0f6985545d80E>:
    fea0:	41 56                	push   %r14
    fea2:	53                   	push   %rbx
    fea3:	50                   	push   %rax
    fea4:	0f ae e8             	lfence 
    fea7:	8b 07                	mov    (%rdi),%eax
    fea9:	0f ae e8             	lfence 
    feac:	83 e0 06             	and    $0x6,%eax
    feaf:	83 f8 04             	cmp    $0x4,%eax
    feb2:	75 0d                	jne    fec1 <_ZN4core3ptr102drop_in_place$LT$core..cell..UnsafeCell$LT$std..sync..mpsc..oneshot..MyUpgrade$LT$$LP$$RP$$GT$$GT$$GT$17hb12c0f6985545d80E+0x21>
    feb4:	48 83 c4 08          	add    $0x8,%rsp
    feb8:	5b                   	pop    %rbx
    feb9:	41 5e                	pop    %r14
    febb:	58                   	pop    %rax
    febc:	0f ae e8             	lfence 
    febf:	ff e0                	jmpq   *%rax
    fec1:	48 89 fb             	mov    %rdi,%rbx
    fec4:	e8 47 9a 00 00       	callq  19910 <_ZN76_$LT$std..sync..mpsc..Receiver$LT$T$GT$$u20$as$u20$core..ops..drop..Drop$GT$4drop17h1bd75845d0bc866cE>
    fec9:	48 8b 03             	mov    (%rbx),%rax
    fecc:	0f ae e8             	lfence 
    fecf:	48 83 f8 02          	cmp    $0x2,%rax
    fed3:	74 2e                	je     ff03 <_ZN4core3ptr102drop_in_place$LT$core..cell..UnsafeCell$LT$std..sync..mpsc..oneshot..MyUpgrade$LT$$LP$$RP$$GT$$GT$$GT$17hb12c0f6985545d80E+0x63>
    fed5:	83 f8 01             	cmp    $0x1,%eax
    fed8:	74 4d                	je     ff27 <_ZN4core3ptr102drop_in_place$LT$core..cell..UnsafeCell$LT$std..sync..mpsc..oneshot..MyUpgrade$LT$$LP$$RP$$GT$$GT$$GT$17hb12c0f6985545d80E+0x87>
    feda:	48 85 c0             	test   %rax,%rax
    fedd:	75 70                	jne    ff4f <_ZN4core3ptr102drop_in_place$LT$core..cell..UnsafeCell$LT$std..sync..mpsc..oneshot..MyUpgrade$LT$$LP$$RP$$GT$$GT$$GT$17hb12c0f6985545d80E+0xaf>
    fedf:	48 8b 43 08          	mov    0x8(%rbx),%rax
    fee3:	0f ae e8             	lfence 
    fee6:	f0 48 83 28 01       	lock subq $0x1,(%rax)
    feeb:	0f ae e8             	lfence 
    feee:	75 c4                	jne    feb4 <_ZN4core3ptr102drop_in_place$LT$core..cell..UnsafeCell$LT$std..sync..mpsc..oneshot..MyUpgrade$LT$$LP$$RP$$GT$$GT$$GT$17hb12c0f6985545d80E+0x14>
    fef0:	48 83 c3 08          	add    $0x8,%rbx
    fef4:	48 89 df             	mov    %rbx,%rdi
    fef7:	48 83 c4 08          	add    $0x8,%rsp
    fefb:	5b                   	pop    %rbx
    fefc:	41 5e                	pop    %r14
    fefe:	e9 3d 29 00 00       	jmpq   12840 <_ZN5alloc4sync12Arc$LT$T$GT$9drop_slow17h33244e520422c953E>
    ff03:	48 8b 43 08          	mov    0x8(%rbx),%rax
    ff07:	0f ae e8             	lfence 
    ff0a:	f0 48 83 28 01       	lock subq $0x1,(%rax)
    ff0f:	0f ae e8             	lfence 
    ff12:	75 a0                	jne    feb4 <_ZN4core3ptr102drop_in_place$LT$core..cell..UnsafeCell$LT$std..sync..mpsc..oneshot..MyUpgrade$LT$$LP$$RP$$GT$$GT$$GT$17hb12c0f6985545d80E+0x14>
    ff14:	48 83 c3 08          	add    $0x8,%rbx
    ff18:	48 89 df             	mov    %rbx,%rdi
    ff1b:	48 83 c4 08          	add    $0x8,%rsp
    ff1f:	5b                   	pop    %rbx
    ff20:	41 5e                	pop    %r14
    ff22:	e9 99 2a 00 00       	jmpq   129c0 <_ZN5alloc4sync12Arc$LT$T$GT$9drop_slow17h7843c6f1e66c2938E>
    ff27:	48 8b 43 08          	mov    0x8(%rbx),%rax
    ff2b:	0f ae e8             	lfence 
    ff2e:	f0 48 83 28 01       	lock subq $0x1,(%rax)
    ff33:	0f ae e8             	lfence 
    ff36:	0f 85 78 ff ff ff    	jne    feb4 <_ZN4core3ptr102drop_in_place$LT$core..cell..UnsafeCell$LT$std..sync..mpsc..oneshot..MyUpgrade$LT$$LP$$RP$$GT$$GT$$GT$17hb12c0f6985545d80E+0x14>
    ff3c:	48 83 c3 08          	add    $0x8,%rbx
    ff40:	48 89 df             	mov    %rbx,%rdi
    ff43:	48 83 c4 08          	add    $0x8,%rsp
    ff47:	5b                   	pop    %rbx
    ff48:	41 5e                	pop    %r14
    ff4a:	e9 01 2c 00 00       	jmpq   12b50 <_ZN5alloc4sync12Arc$LT$T$GT$9drop_slow17h9ac76426e5e1f36cE>
    ff4f:	48 8b 43 08          	mov    0x8(%rbx),%rax
    ff53:	0f ae e8             	lfence 
    ff56:	f0 48 83 28 01       	lock subq $0x1,(%rax)
    ff5b:	0f ae e8             	lfence 
    ff5e:	0f 85 50 ff ff ff    	jne    feb4 <_ZN4core3ptr102drop_in_place$LT$core..cell..UnsafeCell$LT$std..sync..mpsc..oneshot..MyUpgrade$LT$$LP$$RP$$GT$$GT$$GT$17hb12c0f6985545d80E+0x14>
    ff64:	48 83 c3 08          	add    $0x8,%rbx
    ff68:	48 89 df             	mov    %rbx,%rdi
    ff6b:	48 83 c4 08          	add    $0x8,%rsp
    ff6f:	5b                   	pop    %rbx
    ff70:	41 5e                	pop    %r14
    ff72:	e9 d9 2d 00 00       	jmpq   12d50 <_ZN5alloc4sync12Arc$LT$T$GT$9drop_slow17ha547a3409d4a9fdaE>
    ff77:	49 89 c6             	mov    %rax,%r14
    ff7a:	48 89 df             	mov    %rbx,%rdi
    ff7d:	e8 6e 19 00 00       	callq  118f0 <_ZN4core3ptr90drop_in_place$LT$core..cell..UnsafeCell$LT$std..sync..mpsc..Flavor$LT$$LP$$RP$$GT$$GT$$GT$17hec50c233472dcb45E>
    ff82:	4c 89 f7             	mov    %r14,%rdi
    ff85:	e8 76 7c 01 00       	callq  27c00 <_Unwind_Resume>
    ff8a:	0f 0b                	ud2    
    ff8c:	cc                   	int3   
    ff8d:	cc                   	int3   
    ff8e:	cc                   	int3   
    ff8f:	cc                   	int3   

000000000000ff90 <_ZN4core3ptr104drop_in_place$LT$std..io..Write..write_fmt..Adaptor$LT$std..sys..sgx..abi..panic..SgxPanicOutput$GT$$GT$17hc3dbf18b2eaf7d23E>:
    ff90:	41 57                	push   %r15
    ff92:	41 56                	push   %r14
    ff94:	53                   	push   %rbx
    ff95:	0f ae e8             	lfence 
    ff98:	80 7f 08 03          	cmpb   $0x3,0x8(%rdi)
    ff9c:	0f ae e8             	lfence 
    ff9f:	75 53                	jne    fff4 <_ZN4core3ptr104drop_in_place$LT$std..io..Write..write_fmt..Adaptor$LT$std..sys..sgx..abi..panic..SgxPanicOutput$GT$$GT$17hc3dbf18b2eaf7d23E+0x64>
    ffa1:	49 89 ff             	mov    %rdi,%r15
    ffa4:	48 8b 5f 10          	mov    0x10(%rdi),%rbx
    ffa8:	0f ae e8             	lfence 
    ffab:	48 8b 3b             	mov    (%rbx),%rdi
    ffae:	48 8b 43 08          	mov    0x8(%rbx),%rax
    ffb2:	0f ae e8             	lfence 
    ffb5:	4c 8b 18             	mov    (%rax),%r11
    ffb8:	e8 e3 e9 ff ff       	callq  e9a0 <__llvm_lvi_thunk_r11>
    ffbd:	48 8b 43 08          	mov    0x8(%rbx),%rax
    ffc1:	0f ae e8             	lfence 
    ffc4:	48 8b 70 08          	mov    0x8(%rax),%rsi
    ffc8:	0f ae e8             	lfence 
    ffcb:	48 85 f6             	test   %rsi,%rsi
    ffce:	74 0c                	je     ffdc <_ZN4core3ptr104drop_in_place$LT$std..io..Write..write_fmt..Adaptor$LT$std..sys..sgx..abi..panic..SgxPanicOutput$GT$$GT$17hc3dbf18b2eaf7d23E+0x4c>
    ffd0:	48 8b 3b             	mov    (%rbx),%rdi
    ffd3:	48 8b 50 10          	mov    0x10(%rax),%rdx
    ffd7:	e8 a4 ec ff ff       	callq  ec80 <__rust_dealloc>
    ffdc:	49 8b 7f 10          	mov    0x10(%r15),%rdi
    ffe0:	be 18 00 00 00       	mov    $0x18,%esi
    ffe5:	ba 08 00 00 00       	mov    $0x8,%edx
    ffea:	5b                   	pop    %rbx
    ffeb:	41 5e                	pop    %r14
    ffed:	41 5f                	pop    %r15
    ffef:	e9 8c ec ff ff       	jmpq   ec80 <__rust_dealloc>
    fff4:	5b                   	pop    %rbx
    fff5:	41 5e                	pop    %r14
    fff7:	41 5f                	pop    %r15
    fff9:	58                   	pop    %rax
    fffa:	0f ae e8             	lfence 
    fffd:	ff e0                	jmpq   *%rax
    ffff:	49 89 c6             	mov    %rax,%r14
   10002:	48 8b 3b             	mov    (%rbx),%rdi
   10005:	48 8b 73 08          	mov    0x8(%rbx),%rsi
   10009:	e8 22 30 00 00       	callq  13030 <_ZN5alloc5alloc8box_free17h5b701317a99e898bE>
   1000e:	49 8b 7f 10          	mov    0x10(%r15),%rdi
   10012:	e8 09 30 00 00       	callq  13020 <_ZN5alloc5alloc8box_free17h4ad8baae80fc3406E>
   10017:	4c 89 f7             	mov    %r14,%rdi
   1001a:	e8 e1 7b 01 00       	callq  27c00 <_Unwind_Resume>
   1001f:	0f 0b                	ud2    
   10021:	cc                   	int3   
   10022:	cc                   	int3   
   10023:	cc                   	int3   
   10024:	cc                   	int3   
   10025:	cc                   	int3   
   10026:	cc                   	int3   
   10027:	cc                   	int3   
   10028:	cc                   	int3   
   10029:	cc                   	int3   
   1002a:	cc                   	int3   
   1002b:	cc                   	int3   
   1002c:	cc                   	int3   
   1002d:	cc                   	int3   
   1002e:	cc                   	int3   
   1002f:	cc                   	int3   

0000000000010030 <_ZN4core3ptr109drop_in_place$LT$std..sys..sgx..abi..usercalls..alloc..User$LT$$u5b$fortanix_sgx_abi..ByteBuffer$u5d$$GT$$GT$17h3d17375a463c60b6E>:
   10030:	48 83 ec 38          	sub    $0x38,%rsp
   10034:	48 89 f2             	mov    %rsi,%rdx
   10037:	48 89 fe             	mov    %rdi,%rsi
   1003a:	48 c1 e2 04          	shl    $0x4,%rdx
   1003e:	bf 0f 00 00 00       	mov    $0xf,%edi
   10043:	41 b8 08 00 00 00    	mov    $0x8,%r8d
   10049:	31 c9                	xor    %ecx,%ecx
   1004b:	45 31 c9             	xor    %r9d,%r9d
   1004e:	e8 60 ee ff ff       	callq  eeb3 <usercall>
   10053:	48 85 c0             	test   %rax,%rax
   10056:	75 0f                	jne    10067 <_ZN4core3ptr109drop_in_place$LT$std..sys..sgx..abi..usercalls..alloc..User$LT$$u5b$fortanix_sgx_abi..ByteBuffer$u5d$$GT$$GT$17h3d17375a463c60b6E+0x37>
   10058:	48 85 d2             	test   %rdx,%rdx
   1005b:	75 13                	jne    10070 <_ZN4core3ptr109drop_in_place$LT$std..sys..sgx..abi..usercalls..alloc..User$LT$$u5b$fortanix_sgx_abi..ByteBuffer$u5d$$GT$$GT$17h3d17375a463c60b6E+0x40>
   1005d:	48 83 c4 38          	add    $0x38,%rsp
   10061:	58                   	pop    %rax
   10062:	0f ae e8             	lfence 
   10065:	ff e0                	jmpq   *%rax
   10067:	48 8d 05 da 47 02 00 	lea    0x247da(%rip),%rax        # 34848 <_ZN9libunwind13DwarfFDECacheINS_17LocalAddressSpaceEE10_bufferEndE+0x11e0>
   1006e:	eb 07                	jmp    10077 <_ZN4core3ptr109drop_in_place$LT$std..sys..sgx..abi..usercalls..alloc..User$LT$$u5b$fortanix_sgx_abi..ByteBuffer$u5d$$GT$$GT$17h3d17375a463c60b6E+0x47>
   10070:	48 8d 05 e1 47 02 00 	lea    0x247e1(%rip),%rax        # 34858 <_ZN9libunwind13DwarfFDECacheINS_17LocalAddressSpaceEE10_bufferEndE+0x11f0>
   10077:	48 89 44 24 08       	mov    %rax,0x8(%rsp)
   1007c:	48 c7 44 24 10 01 00 	movq   $0x1,0x10(%rsp)
   10083:	00 00 
   10085:	48 c7 44 24 18 00 00 	movq   $0x0,0x18(%rsp)
   1008c:	00 00 
   1008e:	48 8d 05 13 4f ff ff 	lea    -0xb0ed(%rip),%rax        # 4fa8 <EH_FRM_LEN+0x368>
   10095:	48 89 44 24 28       	mov    %rax,0x28(%rsp)
   1009a:	48 c7 44 24 30 00 00 	movq   $0x0,0x30(%rsp)
   100a1:	00 00 
   100a3:	48 8d 7c 24 08       	lea    0x8(%rsp),%rdi
   100a8:	e8 53 b4 00 00       	callq  1b500 <_ZN3std10sys_common4util5abort17h9acf05c9cc235988E>
   100ad:	0f 0b                	ud2    
   100af:	cc                   	int3   

00000000000100b0 <_ZN4core3ptr109drop_in_place$LT$std..sys_common..poison..PoisonError$LT$std..sync..mutex..MutexGuard$LT$$LP$$RP$$GT$$GT$$GT$17h0e7275bc28d20f66E>:
   100b0:	e9 cb fb ff ff       	jmpq   fc80 <_ZN4core3ptr101drop_in_place$LT$std..sync..mutex..MutexGuard$LT$std..sync..mpsc..sync..State$LT$$LP$$RP$$GT$$GT$$GT$17h7cd1170d50967928E>
   100b5:	cc                   	int3   
   100b6:	cc                   	int3   
   100b7:	cc                   	int3   
   100b8:	cc                   	int3   
   100b9:	cc                   	int3   
   100ba:	cc                   	int3   
   100bb:	cc                   	int3   
   100bc:	cc                   	int3   
   100bd:	cc                   	int3   
   100be:	cc                   	int3   
   100bf:	cc                   	int3   

00000000000100c0 <_ZN4core3ptr112drop_in_place$LT$alloc..boxed..Box$LT$std..thread..local..os..Value$LT$core..cell..Cell$LT$usize$GT$$GT$$GT$$GT$17h85458a9af8b560baE>:
   100c0:	0f ae e8             	lfence 
   100c3:	48 8b 3f             	mov    (%rdi),%rdi
   100c6:	be 18 00 00 00       	mov    $0x18,%esi
   100cb:	ba 08 00 00 00       	mov    $0x8,%edx
   100d0:	e9 ab eb ff ff       	jmpq   ec80 <__rust_dealloc>
   100d5:	cc                   	int3   
   100d6:	cc                   	int3   
   100d7:	cc                   	int3   
   100d8:	cc                   	int3   
   100d9:	cc                   	int3   
   100da:	cc                   	int3   
   100db:	cc                   	int3   
   100dc:	cc                   	int3   
   100dd:	cc                   	int3   
   100de:	cc                   	int3   
   100df:	cc                   	int3   

00000000000100e0 <_ZN4core3ptr115drop_in_place$LT$core..cell..RefMut$LT$core..option..Option$LT$std..sys_common..thread_info..ThreadInfo$GT$$GT$$GT$17hf10c518667c777c6E>:
   100e0:	0f ae e8             	lfence 
   100e3:	48 83 07 01          	addq   $0x1,(%rdi)
   100e7:	58                   	pop    %rax
   100e8:	0f ae e8             	lfence 
   100eb:	ff e0                	jmpq   *%rax
   100ed:	cc                   	int3   
   100ee:	cc                   	int3   
   100ef:	cc                   	int3   

00000000000100f0 <_ZN4core3ptr124drop_in_place$LT$std..sys..sgx..waitqueue..WaitGuard$LT$core..option..Option$LT$core..num..nonzero..NonZeroUsize$GT$$GT$$GT$17h627b1f298d883cd8E>:
   100f0:	41 56                	push   %r14
   100f2:	53                   	push   %rbx
   100f3:	48 83 ec 58          	sub    $0x58,%rsp
   100f7:	0f ae e8             	lfence 
   100fa:	48 89 fb             	mov    %rdi,%rbx
   100fd:	48 8b 07             	mov    (%rdi),%rax
   10100:	0f ae e8             	lfence 
   10103:	48 c7 07 00 00 00 00 	movq   $0x0,(%rdi)
   1010a:	48 85 c0             	test   %rax,%rax
   1010d:	74 04                	je     10113 <_ZN4core3ptr124drop_in_place$LT$std..sys..sgx..waitqueue..WaitGuard$LT$core..option..Option$LT$core..num..nonzero..NonZeroUsize$GT$$GT$$GT$17h627b1f298d883cd8E+0x23>
   1010f:	c6 40 40 00          	movb   $0x0,0x40(%rax)
   10113:	83 7b 08 01          	cmpl   $0x1,0x8(%rbx)
   10117:	0f ae e8             	lfence 
   1011a:	ba 00 00 00 00       	mov    $0x0,%edx
   1011f:	74 04                	je     10125 <_ZN4core3ptr124drop_in_place$LT$std..sys..sgx..waitqueue..WaitGuard$LT$core..option..Option$LT$core..num..nonzero..NonZeroUsize$GT$$GT$$GT$17h627b1f298d883cd8E+0x35>
   10121:	48 8b 53 10          	mov    0x10(%rbx),%rdx
   10125:	bf 0c 00 00 00       	mov    $0xc,%edi
   1012a:	be 04 00 00 00       	mov    $0x4,%esi
   1012f:	31 c9                	xor    %ecx,%ecx
   10131:	45 31 c0             	xor    %r8d,%r8d
   10134:	45 31 c9             	xor    %r9d,%r9d
   10137:	e8 77 ed ff ff       	callq  eeb3 <usercall>
   1013c:	48 85 d2             	test   %rdx,%rdx
   1013f:	75 20                	jne    10161 <_ZN4core3ptr124drop_in_place$LT$std..sys..sgx..waitqueue..WaitGuard$LT$core..option..Option$LT$core..num..nonzero..NonZeroUsize$GT$$GT$$GT$17h627b1f298d883cd8E+0x71>
   10141:	85 c0                	test   %eax,%eax
   10143:	75 5b                	jne    101a0 <_ZN4core3ptr124drop_in_place$LT$std..sys..sgx..waitqueue..WaitGuard$LT$core..option..Option$LT$core..num..nonzero..NonZeroUsize$GT$$GT$$GT$17h627b1f298d883cd8E+0xb0>
   10145:	48 8b 03             	mov    (%rbx),%rax
   10148:	0f ae e8             	lfence 
   1014b:	48 85 c0             	test   %rax,%rax
   1014e:	74 04                	je     10154 <_ZN4core3ptr124drop_in_place$LT$std..sys..sgx..waitqueue..WaitGuard$LT$core..option..Option$LT$core..num..nonzero..NonZeroUsize$GT$$GT$$GT$17h627b1f298d883cd8E+0x64>
   10150:	c6 40 40 00          	movb   $0x0,0x40(%rax)
   10154:	48 83 c4 58          	add    $0x58,%rsp
   10158:	5b                   	pop    %rbx
   10159:	41 5e                	pop    %r14
   1015b:	58                   	pop    %rax
   1015c:	0f ae e8             	lfence 
   1015f:	ff e0                	jmpq   *%rax
   10161:	48 8d 05 f0 46 02 00 	lea    0x246f0(%rip),%rax        # 34858 <_ZN9libunwind13DwarfFDECacheINS_17LocalAddressSpaceEE10_bufferEndE+0x11f0>
   10168:	48 89 44 24 18       	mov    %rax,0x18(%rsp)
   1016d:	48 c7 44 24 20 01 00 	movq   $0x1,0x20(%rsp)
   10174:	00 00 
   10176:	48 c7 44 24 28 00 00 	movq   $0x0,0x28(%rsp)
   1017d:	00 00 
   1017f:	48 8d 05 22 4e ff ff 	lea    -0xb1de(%rip),%rax        # 4fa8 <EH_FRM_LEN+0x368>
   10186:	48 89 44 24 38       	mov    %rax,0x38(%rsp)
   1018b:	48 c7 44 24 40 00 00 	movq   $0x0,0x40(%rsp)
   10192:	00 00 
   10194:	48 8d 7c 24 18       	lea    0x18(%rsp),%rdi
   10199:	e8 62 b3 00 00       	callq  1b500 <_ZN3std10sys_common4util5abort17h9acf05c9cc235988E>
   1019e:	eb 71                	jmp    10211 <_ZN4core3ptr124drop_in_place$LT$std..sys..sgx..waitqueue..WaitGuard$LT$core..option..Option$LT$core..num..nonzero..NonZeroUsize$GT$$GT$$GT$17h627b1f298d883cd8E+0x121>
   101a0:	89 c7                	mov    %eax,%edi
   101a2:	e8 a9 ea 00 00       	callq  1ec50 <_ZN3std3sys3sgx3abi9usercalls14check_os_error17ha330e02bc34d1c72E>
   101a7:	48 c1 e0 20          	shl    $0x20,%rax
   101ab:	48 89 04 24          	mov    %rax,(%rsp)
   101af:	48 c7 44 24 08 00 00 	movq   $0x0,0x8(%rsp)
   101b6:	00 00 
   101b8:	48 89 e0             	mov    %rsp,%rax
   101bb:	48 89 44 24 10       	mov    %rax,0x10(%rsp)
   101c0:	48 8d 44 24 10       	lea    0x10(%rsp),%rax
   101c5:	48 89 44 24 48       	mov    %rax,0x48(%rsp)
   101ca:	48 8d 05 2f 32 00 00 	lea    0x322f(%rip),%rax        # 13400 <_ZN70_$LT$core..result..Result$LT$T$C$E$GT$$u20$as$u20$core..fmt..Debug$GT$3fmt17h3f28b5417cf825e9E>
   101d1:	48 89 44 24 50       	mov    %rax,0x50(%rsp)
   101d6:	48 8d 05 73 47 02 00 	lea    0x24773(%rip),%rax        # 34950 <_ZN9libunwind13DwarfFDECacheINS_17LocalAddressSpaceEE10_bufferEndE+0x12e8>
   101dd:	48 89 44 24 18       	mov    %rax,0x18(%rsp)
   101e2:	48 c7 44 24 20 01 00 	movq   $0x1,0x20(%rsp)
   101e9:	00 00 
   101eb:	48 c7 44 24 28 00 00 	movq   $0x0,0x28(%rsp)
   101f2:	00 00 
   101f4:	48 8d 44 24 48       	lea    0x48(%rsp),%rax
   101f9:	48 89 44 24 38       	mov    %rax,0x38(%rsp)
   101fe:	48 c7 44 24 40 01 00 	movq   $0x1,0x40(%rsp)
   10205:	00 00 
   10207:	48 8d 7c 24 18       	lea    0x18(%rsp),%rdi
   1020c:	e8 ef b2 00 00       	callq  1b500 <_ZN3std10sys_common4util5abort17h9acf05c9cc235988E>
   10211:	0f 0b                	ud2    
   10213:	49 89 c6             	mov    %rax,%r14
   10216:	48 89 e7             	mov    %rsp,%rdi
   10219:	e8 a2 14 00 00       	callq  116c0 <_ZN4core3ptr81drop_in_place$LT$core..result..Result$LT$$LP$$RP$$C$std..io..error..Error$GT$$GT$17h0385fabadcbcc0c0E>
   1021e:	eb 03                	jmp    10223 <_ZN4core3ptr124drop_in_place$LT$std..sys..sgx..waitqueue..WaitGuard$LT$core..option..Option$LT$core..num..nonzero..NonZeroUsize$GT$$GT$$GT$17h627b1f298d883cd8E+0x133>
   10220:	49 89 c6             	mov    %rax,%r14
   10223:	48 89 df             	mov    %rbx,%rdi
   10226:	e8 65 01 00 00       	callq  10390 <_ZN4core3ptr159drop_in_place$LT$core..option..Option$LT$std..sys..sgx..waitqueue..spin_mutex..SpinMutexGuard$LT$std..sys..sgx..waitqueue..WaitVariable$LT$bool$GT$$GT$$GT$$GT$17h985a069ab593376eE>
   1022b:	4c 89 f7             	mov    %r14,%rdi
   1022e:	e8 cd 79 01 00       	callq  27c00 <_Unwind_Resume>
   10233:	0f 0b                	ud2    
   10235:	cc                   	int3   
   10236:	cc                   	int3   
   10237:	cc                   	int3   
   10238:	cc                   	int3   
   10239:	cc                   	int3   
   1023a:	cc                   	int3   
   1023b:	cc                   	int3   
   1023c:	cc                   	int3   
   1023d:	cc                   	int3   
   1023e:	cc                   	int3   
   1023f:	cc                   	int3   

0000000000010240 <_ZN4core3ptr125drop_in_place$LT$core..result..Result$LT$i32$C$alloc..boxed..Box$LT$dyn$u20$core..any..Any$u2b$core..marker..Send$GT$$GT$$GT$17hddc53fda1951b6e7E>:
   10240:	41 56                	push   %r14
   10242:	53                   	push   %rbx
   10243:	50                   	push   %rax
   10244:	0f ae e8             	lfence 
   10247:	83 3f 00             	cmpl   $0x0,(%rdi)
   1024a:	0f ae e8             	lfence 
   1024d:	74 3d                	je     1028c <_ZN4core3ptr125drop_in_place$LT$core..result..Result$LT$i32$C$alloc..boxed..Box$LT$dyn$u20$core..any..Any$u2b$core..marker..Send$GT$$GT$$GT$17hddc53fda1951b6e7E+0x4c>
   1024f:	48 89 fb             	mov    %rdi,%rbx
   10252:	48 8b 7f 08          	mov    0x8(%rdi),%rdi
   10256:	48 8b 43 10          	mov    0x10(%rbx),%rax
   1025a:	0f ae e8             	lfence 
   1025d:	4c 8b 18             	mov    (%rax),%r11
   10260:	e8 3b e7 ff ff       	callq  e9a0 <__llvm_lvi_thunk_r11>
   10265:	48 8b 43 10          	mov    0x10(%rbx),%rax
   10269:	0f ae e8             	lfence 
   1026c:	48 8b 70 08          	mov    0x8(%rax),%rsi
   10270:	0f ae e8             	lfence 
   10273:	48 85 f6             	test   %rsi,%rsi
   10276:	74 14                	je     1028c <_ZN4core3ptr125drop_in_place$LT$core..result..Result$LT$i32$C$alloc..boxed..Box$LT$dyn$u20$core..any..Any$u2b$core..marker..Send$GT$$GT$$GT$17hddc53fda1951b6e7E+0x4c>
   10278:	48 8b 7b 08          	mov    0x8(%rbx),%rdi
   1027c:	48 8b 50 10          	mov    0x10(%rax),%rdx
   10280:	48 83 c4 08          	add    $0x8,%rsp
   10284:	5b                   	pop    %rbx
   10285:	41 5e                	pop    %r14
   10287:	e9 f4 e9 ff ff       	jmpq   ec80 <__rust_dealloc>
   1028c:	48 83 c4 08          	add    $0x8,%rsp
   10290:	5b                   	pop    %rbx
   10291:	41 5e                	pop    %r14
   10293:	58                   	pop    %rax
   10294:	0f ae e8             	lfence 
   10297:	ff e0                	jmpq   *%rax
   10299:	49 89 c6             	mov    %rax,%r14
   1029c:	48 8b 7b 08          	mov    0x8(%rbx),%rdi
   102a0:	48 8b 73 10          	mov    0x10(%rbx),%rsi
   102a4:	e8 87 2d 00 00       	callq  13030 <_ZN5alloc5alloc8box_free17h5b701317a99e898bE>
   102a9:	4c 89 f7             	mov    %r14,%rdi
   102ac:	e8 4f 79 01 00       	callq  27c00 <_Unwind_Resume>
   102b1:	0f 0b                	ud2    
   102b3:	cc                   	int3   
   102b4:	cc                   	int3   
   102b5:	cc                   	int3   
   102b6:	cc                   	int3   
   102b7:	cc                   	int3   
   102b8:	cc                   	int3   
   102b9:	cc                   	int3   
   102ba:	cc                   	int3   
   102bb:	cc                   	int3   
   102bc:	cc                   	int3   
   102bd:	cc                   	int3   
   102be:	cc                   	int3   
   102bf:	cc                   	int3   

00000000000102c0 <_ZN4core3ptr131drop_in_place$LT$alloc..boxed..Box$LT$dyn$u20$core..ops..function..FnOnce$LT$$LP$$RP$$GT$$u2b$Output$u20$$u3d$$u20$$LP$$RP$$GT$$GT$17hc8f8e4b3a7307391E>:
   102c0:	41 56                	push   %r14
   102c2:	53                   	push   %rbx
   102c3:	50                   	push   %rax
   102c4:	0f ae e8             	lfence 
   102c7:	48 89 fb             	mov    %rdi,%rbx
   102ca:	48 8b 3f             	mov    (%rdi),%rdi
   102cd:	48 8b 43 08          	mov    0x8(%rbx),%rax
   102d1:	0f ae e8             	lfence 
   102d4:	4c 8b 18             	mov    (%rax),%r11
   102d7:	e8 c4 e6 ff ff       	callq  e9a0 <__llvm_lvi_thunk_r11>
   102dc:	48 8b 43 08          	mov    0x8(%rbx),%rax
   102e0:	0f ae e8             	lfence 
   102e3:	48 8b 70 08          	mov    0x8(%rax),%rsi
   102e7:	0f ae e8             	lfence 
   102ea:	48 85 f6             	test   %rsi,%rsi
   102ed:	74 13                	je     10302 <_ZN4core3ptr131drop_in_place$LT$alloc..boxed..Box$LT$dyn$u20$core..ops..function..FnOnce$LT$$LP$$RP$$GT$$u2b$Output$u20$$u3d$$u20$$LP$$RP$$GT$$GT$17hc8f8e4b3a7307391E+0x42>
   102ef:	48 8b 3b             	mov    (%rbx),%rdi
   102f2:	48 8b 50 10          	mov    0x10(%rax),%rdx
   102f6:	48 83 c4 08          	add    $0x8,%rsp
   102fa:	5b                   	pop    %rbx
   102fb:	41 5e                	pop    %r14
   102fd:	e9 7e e9 ff ff       	jmpq   ec80 <__rust_dealloc>
   10302:	48 83 c4 08          	add    $0x8,%rsp
   10306:	5b                   	pop    %rbx
   10307:	41 5e                	pop    %r14
   10309:	58                   	pop    %rax
   1030a:	0f ae e8             	lfence 
   1030d:	ff e0                	jmpq   *%rax
   1030f:	49 89 c6             	mov    %rax,%r14
   10312:	48 8b 3b             	mov    (%rbx),%rdi
   10315:	48 8b 73 08          	mov    0x8(%rbx),%rsi
   10319:	e8 12 2d 00 00       	callq  13030 <_ZN5alloc5alloc8box_free17h5b701317a99e898bE>
   1031e:	4c 89 f7             	mov    %r14,%rdi
   10321:	e8 da 78 01 00       	callq  27c00 <_Unwind_Resume>
   10326:	0f 0b                	ud2    
   10328:	cc                   	int3   
   10329:	cc                   	int3   
   1032a:	cc                   	int3   
   1032b:	cc                   	int3   
   1032c:	cc                   	int3   
   1032d:	cc                   	int3   
   1032e:	cc                   	int3   
   1032f:	cc                   	int3   

0000000000010330 <_ZN4core3ptr131drop_in_place$LT$std..sys..sgx..waitqueue..spin_mutex..SpinMutexGuard$LT$std..sys..sgx..waitqueue..WaitVariable$LT$bool$GT$$GT$$GT$17hbf0ae2ed76bae72bE>:
   10330:	0f ae e8             	lfence 
   10333:	48 8b 07             	mov    (%rdi),%rax
   10336:	0f ae e8             	lfence 
   10339:	c6 40 40 00          	movb   $0x0,0x40(%rax)
   1033d:	58                   	pop    %rax
   1033e:	0f ae e8             	lfence 
   10341:	ff e0                	jmpq   *%rax
   10343:	cc                   	int3   
   10344:	cc                   	int3   
   10345:	cc                   	int3   
   10346:	cc                   	int3   
   10347:	cc                   	int3   
   10348:	cc                   	int3   
   10349:	cc                   	int3   
   1034a:	cc                   	int3   
   1034b:	cc                   	int3   
   1034c:	cc                   	int3   
   1034d:	cc                   	int3   
   1034e:	cc                   	int3   
   1034f:	cc                   	int3   

0000000000010350 <_ZN4core3ptr132drop_in_place$LT$std..sys..sgx..waitqueue..spin_mutex..SpinMutexGuard$LT$dlmalloc..Dlmalloc$LT$std..sys..sgx..alloc..Sgx$GT$$GT$$GT$17h49e2d77764cf5d2dE>:
   10350:	0f ae e8             	lfence 
   10353:	48 8b 07             	mov    (%rdi),%rax
   10356:	0f ae e8             	lfence 
   10359:	c6 80 80 03 00 00 00 	movb   $0x0,0x380(%rax)
   10360:	58                   	pop    %rax
   10361:	0f ae e8             	lfence 
   10364:	ff e0                	jmpq   *%rax
   10366:	cc                   	int3   
   10367:	cc                   	int3   
   10368:	cc                   	int3   
   10369:	cc                   	int3   
   1036a:	cc                   	int3   
   1036b:	cc                   	int3   
   1036c:	cc                   	int3   
   1036d:	cc                   	int3   
   1036e:	cc                   	int3   
   1036f:	cc                   	int3   

0000000000010370 <_ZN4core3ptr135drop_in_place$LT$std..sys..sgx..waitqueue..spin_mutex..SpinMutexGuard$LT$std..sys..sgx..waitqueue..WaitVariable$LT$$LP$$RP$$GT$$GT$$GT$17hc917464dd12c8e9cE>:
   10370:	0f ae e8             	lfence 
   10373:	48 8b 07             	mov    (%rdi),%rax
   10376:	0f ae e8             	lfence 
   10379:	c6 40 38 00          	movb   $0x0,0x38(%rax)
   1037d:	58                   	pop    %rax
   1037e:	0f ae e8             	lfence 
   10381:	ff e0                	jmpq   *%rax
   10383:	cc                   	int3   
   10384:	cc                   	int3   
   10385:	cc                   	int3   
   10386:	cc                   	int3   
   10387:	cc                   	int3   
   10388:	cc                   	int3   
   10389:	cc                   	int3   
   1038a:	cc                   	int3   
   1038b:	cc                   	int3   
   1038c:	cc                   	int3   
   1038d:	cc                   	int3   
   1038e:	cc                   	int3   
   1038f:	cc                   	int3   

0000000000010390 <_ZN4core3ptr159drop_in_place$LT$core..option..Option$LT$std..sys..sgx..waitqueue..spin_mutex..SpinMutexGuard$LT$std..sys..sgx..waitqueue..WaitVariable$LT$bool$GT$$GT$$GT$$GT$17h985a069ab593376eE>:
   10390:	0f ae e8             	lfence 
   10393:	48 8b 07             	mov    (%rdi),%rax
   10396:	0f ae e8             	lfence 
   10399:	48 85 c0             	test   %rax,%rax
   1039c:	74 04                	je     103a2 <_ZN4core3ptr159drop_in_place$LT$core..option..Option$LT$std..sys..sgx..waitqueue..spin_mutex..SpinMutexGuard$LT$std..sys..sgx..waitqueue..WaitVariable$LT$bool$GT$$GT$$GT$$GT$17h985a069ab593376eE+0x12>
   1039e:	c6 40 40 00          	movb   $0x0,0x40(%rax)
   103a2:	58                   	pop    %rax
   103a3:	0f ae e8             	lfence 
   103a6:	ff e0                	jmpq   *%rax
   103a8:	cc                   	int3   
   103a9:	cc                   	int3   
   103aa:	cc                   	int3   
   103ab:	cc                   	int3   
   103ac:	cc                   	int3   
   103ad:	cc                   	int3   
   103ae:	cc                   	int3   
   103af:	cc                   	int3   

00000000000103b0 <_ZN4core3ptr162drop_in_place$LT$std..sys..sgx..waitqueue..spin_mutex..SpinMutexGuard$LT$std..sys..sgx..waitqueue..WaitVariable$LT$std..sys..sgx..mutex..ReentrantLock$GT$$GT$$GT$17h0d906c136a34595eE>:
   103b0:	0f ae e8             	lfence 
   103b3:	48 8b 07             	mov    (%rdi),%rax
   103b6:	0f ae e8             	lfence 
   103b9:	c6 40 48 00          	movb   $0x0,0x48(%rax)
   103bd:	58                   	pop    %rax
   103be:	0f ae e8             	lfence 
   103c1:	ff e0                	jmpq   *%rax
   103c3:	cc                   	int3   
   103c4:	cc                   	int3   
   103c5:	cc                   	int3   
   103c6:	cc                   	int3   
   103c7:	cc                   	int3   
   103c8:	cc                   	int3   
   103c9:	cc                   	int3   
   103ca:	cc                   	int3   
   103cb:	cc                   	int3   
   103cc:	cc                   	int3   
   103cd:	cc                   	int3   
   103ce:	cc                   	int3   
   103cf:	cc                   	int3   

00000000000103d0 <_ZN4core3ptr163drop_in_place$LT$core..option..Option$LT$std..sys..sgx..waitqueue..spin_mutex..SpinMutexGuard$LT$std..sys..sgx..waitqueue..WaitVariable$LT$$LP$$RP$$GT$$GT$$GT$$GT$17h3a9835c86a58e964E>:
   103d0:	0f ae e8             	lfence 
   103d3:	48 8b 07             	mov    (%rdi),%rax
   103d6:	0f ae e8             	lfence 
   103d9:	48 85 c0             	test   %rax,%rax
   103dc:	74 04                	je     103e2 <_ZN4core3ptr163drop_in_place$LT$core..option..Option$LT$std..sys..sgx..waitqueue..spin_mutex..SpinMutexGuard$LT$std..sys..sgx..waitqueue..WaitVariable$LT$$LP$$RP$$GT$$GT$$GT$$GT$17h3a9835c86a58e964E+0x12>
   103de:	c6 40 38 00          	movb   $0x0,0x38(%rax)
   103e2:	58                   	pop    %rax
   103e3:	0f ae e8             	lfence 
   103e6:	ff e0                	jmpq   *%rax
   103e8:	cc                   	int3   
   103e9:	cc                   	int3   
   103ea:	cc                   	int3   
   103eb:	cc                   	int3   
   103ec:	cc                   	int3   
   103ed:	cc                   	int3   
   103ee:	cc                   	int3   
   103ef:	cc                   	int3   

00000000000103f0 <_ZN4core3ptr170drop_in_place$LT$alloc..vec..into_iter..IntoIter$LT$alloc..boxed..Box$LT$dyn$u20$core..ops..function..FnOnce$LT$$LP$$RP$$GT$$u2b$Output$u20$$u3d$$u20$$LP$$RP$$GT$$GT$$GT$17h7a61c81302182db4E>:
   103f0:	41 57                	push   %r15
   103f2:	41 56                	push   %r14
   103f4:	41 54                	push   %r12
   103f6:	53                   	push   %rbx
   103f7:	50                   	push   %rax
   103f8:	0f ae e8             	lfence 
   103fb:	49 89 fe             	mov    %rdi,%r14
   103fe:	48 89 3c 24          	mov    %rdi,(%rsp)
   10402:	4c 8b 67 10          	mov    0x10(%rdi),%r12
   10406:	0f ae e8             	lfence 
   10409:	4c 8b 7f 18          	mov    0x18(%rdi),%r15
   1040d:	0f ae e8             	lfence 
   10410:	4d 39 e7             	cmp    %r12,%r15
   10413:	74 53                	je     10468 <_ZN4core3ptr170drop_in_place$LT$alloc..vec..into_iter..IntoIter$LT$alloc..boxed..Box$LT$dyn$u20$core..ops..function..FnOnce$LT$$LP$$RP$$GT$$u2b$Output$u20$$u3d$$u20$$LP$$RP$$GT$$GT$$GT$17h7a61c81302182db4E+0x78>
   10415:	49 83 c4 10          	add    $0x10,%r12
   10419:	eb 12                	jmp    1042d <_ZN4core3ptr170drop_in_place$LT$alloc..vec..into_iter..IntoIter$LT$alloc..boxed..Box$LT$dyn$u20$core..ops..function..FnOnce$LT$$LP$$RP$$GT$$u2b$Output$u20$$u3d$$u20$$LP$$RP$$GT$$GT$$GT$17h7a61c81302182db4E+0x3d>
   1041b:	0f 1f 44 00 00       	nopl   0x0(%rax,%rax,1)
   10420:	49 83 c4 10          	add    $0x10,%r12
   10424:	48 83 c3 10          	add    $0x10,%rbx
   10428:	4c 39 fb             	cmp    %r15,%rbx
   1042b:	74 3b                	je     10468 <_ZN4core3ptr170drop_in_place$LT$alloc..vec..into_iter..IntoIter$LT$alloc..boxed..Box$LT$dyn$u20$core..ops..function..FnOnce$LT$$LP$$RP$$GT$$u2b$Output$u20$$u3d$$u20$$LP$$RP$$GT$$GT$$GT$17h7a61c81302182db4E+0x78>
   1042d:	49 8b 7c 24 f0       	mov    -0x10(%r12),%rdi
   10432:	49 8b 44 24 f8       	mov    -0x8(%r12),%rax
   10437:	0f ae e8             	lfence 
   1043a:	4c 8b 18             	mov    (%rax),%r11
   1043d:	e8 5e e5 ff ff       	callq  e9a0 <__llvm_lvi_thunk_r11>
   10442:	49 8d 5c 24 f0       	lea    -0x10(%r12),%rbx
   10447:	48 8b 43 08          	mov    0x8(%rbx),%rax
   1044b:	0f ae e8             	lfence 
   1044e:	48 8b 70 08          	mov    0x8(%rax),%rsi
   10452:	0f ae e8             	lfence 
   10455:	48 85 f6             	test   %rsi,%rsi
   10458:	74 c6                	je     10420 <_ZN4core3ptr170drop_in_place$LT$alloc..vec..into_iter..IntoIter$LT$alloc..boxed..Box$LT$dyn$u20$core..ops..function..FnOnce$LT$$LP$$RP$$GT$$u2b$Output$u20$$u3d$$u20$$LP$$RP$$GT$$GT$$GT$17h7a61c81302182db4E+0x30>
   1045a:	48 8b 3b             	mov    (%rbx),%rdi
   1045d:	48 8b 50 10          	mov    0x10(%rax),%rdx
   10461:	e8 1a e8 ff ff       	callq  ec80 <__rust_dealloc>
   10466:	eb b8                	jmp    10420 <_ZN4core3ptr170drop_in_place$LT$alloc..vec..into_iter..IntoIter$LT$alloc..boxed..Box$LT$dyn$u20$core..ops..function..FnOnce$LT$$LP$$RP$$GT$$u2b$Output$u20$$u3d$$u20$$LP$$RP$$GT$$GT$$GT$17h7a61c81302182db4E+0x30>
   10468:	49 8b 76 08          	mov    0x8(%r14),%rsi
   1046c:	0f ae e8             	lfence 
   1046f:	48 85 f6             	test   %rsi,%rsi
   10472:	74 13                	je     10487 <_ZN4core3ptr170drop_in_place$LT$alloc..vec..into_iter..IntoIter$LT$alloc..boxed..Box$LT$dyn$u20$core..ops..function..FnOnce$LT$$LP$$RP$$GT$$u2b$Output$u20$$u3d$$u20$$LP$$RP$$GT$$GT$$GT$17h7a61c81302182db4E+0x97>
   10474:	48 c1 e6 04          	shl    $0x4,%rsi
   10478:	74 0d                	je     10487 <_ZN4core3ptr170drop_in_place$LT$alloc..vec..into_iter..IntoIter$LT$alloc..boxed..Box$LT$dyn$u20$core..ops..function..FnOnce$LT$$LP$$RP$$GT$$u2b$Output$u20$$u3d$$u20$$LP$$RP$$GT$$GT$$GT$17h7a61c81302182db4E+0x97>
   1047a:	49 8b 3e             	mov    (%r14),%rdi
   1047d:	ba 08 00 00 00       	mov    $0x8,%edx
   10482:	e8 f9 e7 ff ff       	callq  ec80 <__rust_dealloc>
   10487:	48 83 c4 08          	add    $0x8,%rsp
   1048b:	5b                   	pop    %rbx
   1048c:	41 5c                	pop    %r12
   1048e:	41 5e                	pop    %r14
   10490:	41 5f                	pop    %r15
   10492:	58                   	pop    %rax
   10493:	0f ae e8             	lfence 
   10496:	ff e0                	jmpq   *%rax
   10498:	49 89 c6             	mov    %rax,%r14
   1049b:	49 8b 7c 24 f0       	mov    -0x10(%r12),%rdi
   104a0:	49 8b 74 24 f8       	mov    -0x8(%r12),%rsi
   104a5:	e8 86 2b 00 00       	callq  13030 <_ZN5alloc5alloc8box_free17h5b701317a99e898bE>
   104aa:	4d 39 e7             	cmp    %r12,%r15
   104ad:	74 17                	je     104c6 <_ZN4core3ptr170drop_in_place$LT$alloc..vec..into_iter..IntoIter$LT$alloc..boxed..Box$LT$dyn$u20$core..ops..function..FnOnce$LT$$LP$$RP$$GT$$u2b$Output$u20$$u3d$$u20$$LP$$RP$$GT$$GT$$GT$17h7a61c81302182db4E+0xd6>
   104af:	90                   	nop
   104b0:	4c 89 e7             	mov    %r12,%rdi
   104b3:	e8 08 fe ff ff       	callq  102c0 <_ZN4core3ptr131drop_in_place$LT$alloc..boxed..Box$LT$dyn$u20$core..ops..function..FnOnce$LT$$LP$$RP$$GT$$u2b$Output$u20$$u3d$$u20$$LP$$RP$$GT$$GT$17hc8f8e4b3a7307391E>
   104b8:	49 83 c4 10          	add    $0x10,%r12
   104bc:	4d 39 e7             	cmp    %r12,%r15
   104bf:	75 ef                	jne    104b0 <_ZN4core3ptr170drop_in_place$LT$alloc..vec..into_iter..IntoIter$LT$alloc..boxed..Box$LT$dyn$u20$core..ops..function..FnOnce$LT$$LP$$RP$$GT$$u2b$Output$u20$$u3d$$u20$$LP$$RP$$GT$$GT$$GT$17h7a61c81302182db4E+0xc0>
   104c1:	eb 03                	jmp    104c6 <_ZN4core3ptr170drop_in_place$LT$alloc..vec..into_iter..IntoIter$LT$alloc..boxed..Box$LT$dyn$u20$core..ops..function..FnOnce$LT$$LP$$RP$$GT$$u2b$Output$u20$$u3d$$u20$$LP$$RP$$GT$$GT$$GT$17h7a61c81302182db4E+0xd6>
   104c3:	49 89 c6             	mov    %rax,%r14
   104c6:	48 89 e7             	mov    %rsp,%rdi
   104c9:	e8 42 04 00 00       	callq  10910 <_ZN4core3ptr264drop_in_place$LT$$LT$alloc..vec..into_iter..IntoIter$LT$T$C$A$GT$$u20$as$u20$core..ops..drop..Drop$GT$..drop..DropGuard$LT$alloc..boxed..Box$LT$dyn$u20$core..ops..function..FnOnce$LT$$LP$$RP$$GT$$u2b$Output$u20$$u3d$$u20$$LP$$RP$$GT$$C$alloc..alloc..Global$GT$$GT$17hf555b5537b6153ceE>
   104ce:	4c 89 f7             	mov    %r14,%rdi
   104d1:	e8 2a 77 01 00       	callq  27c00 <_Unwind_Resume>
   104d6:	0f 0b                	ud2    
   104d8:	cc                   	int3   
   104d9:	cc                   	int3   
   104da:	cc                   	int3   
   104db:	cc                   	int3   
   104dc:	cc                   	int3   
   104dd:	cc                   	int3   
   104de:	cc                   	int3   
   104df:	cc                   	int3   

00000000000104e0 <_ZN4core3ptr170drop_in_place$LT$core..result..Result$LT$core..ptr..non_null..NonNull$LT$$u5b$u8$u5d$$GT$$C$alloc..boxed..Box$LT$dyn$u20$core..any..Any$u2b$core..marker..Send$GT$$GT$$GT$17h6b8cade4088c0607E>:
   104e0:	41 56                	push   %r14
   104e2:	53                   	push   %rbx
   104e3:	50                   	push   %rax
   104e4:	0f ae e8             	lfence 
   104e7:	48 83 3f 00          	cmpq   $0x0,(%rdi)
   104eb:	0f ae e8             	lfence 
   104ee:	74 3d                	je     1052d <_ZN4core3ptr170drop_in_place$LT$core..result..Result$LT$core..ptr..non_null..NonNull$LT$$u5b$u8$u5d$$GT$$C$alloc..boxed..Box$LT$dyn$u20$core..any..Any$u2b$core..marker..Send$GT$$GT$$GT$17h6b8cade4088c0607E+0x4d>
   104f0:	48 89 fb             	mov    %rdi,%rbx
   104f3:	48 8b 7f 08          	mov    0x8(%rdi),%rdi
   104f7:	48 8b 43 10          	mov    0x10(%rbx),%rax
   104fb:	0f ae e8             	lfence 
   104fe:	4c 8b 18             	mov    (%rax),%r11
   10501:	e8 9a e4 ff ff       	callq  e9a0 <__llvm_lvi_thunk_r11>
   10506:	48 8b 43 10          	mov    0x10(%rbx),%rax
   1050a:	0f ae e8             	lfence 
   1050d:	48 8b 70 08          	mov    0x8(%rax),%rsi
   10511:	0f ae e8             	lfence 
   10514:	48 85 f6             	test   %rsi,%rsi
   10517:	74 14                	je     1052d <_ZN4core3ptr170drop_in_place$LT$core..result..Result$LT$core..ptr..non_null..NonNull$LT$$u5b$u8$u5d$$GT$$C$alloc..boxed..Box$LT$dyn$u20$core..any..Any$u2b$core..marker..Send$GT$$GT$$GT$17h6b8cade4088c0607E+0x4d>
   10519:	48 8b 7b 08          	mov    0x8(%rbx),%rdi
   1051d:	48 8b 50 10          	mov    0x10(%rax),%rdx
   10521:	48 83 c4 08          	add    $0x8,%rsp
   10525:	5b                   	pop    %rbx
   10526:	41 5e                	pop    %r14
   10528:	e9 53 e7 ff ff       	jmpq   ec80 <__rust_dealloc>
   1052d:	48 83 c4 08          	add    $0x8,%rsp
   10531:	5b                   	pop    %rbx
   10532:	41 5e                	pop    %r14
   10534:	58                   	pop    %rax
   10535:	0f ae e8             	lfence 
   10538:	ff e0                	jmpq   *%rax
   1053a:	49 89 c6             	mov    %rax,%r14
   1053d:	48 8b 7b 08          	mov    0x8(%rbx),%rdi
   10541:	48 8b 73 10          	mov    0x10(%rbx),%rsi
   10545:	e8 e6 2a 00 00       	callq  13030 <_ZN5alloc5alloc8box_free17h5b701317a99e898bE>
   1054a:	4c 89 f7             	mov    %r14,%rdi
   1054d:	e8 ae 76 01 00       	callq  27c00 <_Unwind_Resume>
   10552:	0f 0b                	ud2    
   10554:	cc                   	int3   
   10555:	cc                   	int3   
   10556:	cc                   	int3   
   10557:	cc                   	int3   
   10558:	cc                   	int3   
   10559:	cc                   	int3   
   1055a:	cc                   	int3   
   1055b:	cc                   	int3   
   1055c:	cc                   	int3   
   1055d:	cc                   	int3   
   1055e:	cc                   	int3   
   1055f:	cc                   	int3   

0000000000010560 <_ZN4core3ptr175drop_in_place$LT$std..sys_common..remutex..ReentrantMutexGuard$LT$core..cell..RefCell$LT$std..io..buffered..linewriter..LineWriter$LT$std..io..stdio..StdoutRaw$GT$$GT$$GT$$GT$17h9ac9adf0774c9417E>:
   10560:	e9 3b fe 00 00       	jmpq   203a0 <_ZN3std3sys3sgx5mutex14ReentrantMutex6unlock17ha5740d567c45a06cE>
   10565:	cc                   	int3   
   10566:	cc                   	int3   
   10567:	cc                   	int3   
   10568:	cc                   	int3   
   10569:	cc                   	int3   
   1056a:	cc                   	int3   
   1056b:	cc                   	int3   
   1056c:	cc                   	int3   
   1056d:	cc                   	int3   
   1056e:	cc                   	int3   
   1056f:	cc                   	int3   

0000000000010570 <_ZN4core3ptr178drop_in_place$LT$alloc..boxed..Box$LT$std..thread..local..os..Value$LT$core..cell..RefCell$LT$core..option..Option$LT$std..sys_common..thread_info..ThreadInfo$GT$$GT$$GT$$GT$$GT$17hb7149eac4cfb3614E>:
   10570:	53                   	push   %rbx
   10571:	0f ae e8             	lfence 
   10574:	48 89 fb             	mov    %rdi,%rbx
   10577:	48 8b 07             	mov    (%rdi),%rax
   1057a:	0f ae e8             	lfence 
   1057d:	48 83 38 00          	cmpq   $0x0,(%rax)
   10581:	0f ae e8             	lfence 
   10584:	74 1f                	je     105a5 <_ZN4core3ptr178drop_in_place$LT$alloc..boxed..Box$LT$std..thread..local..os..Value$LT$core..cell..RefCell$LT$core..option..Option$LT$std..sys_common..thread_info..ThreadInfo$GT$$GT$$GT$$GT$$GT$17hb7149eac4cfb3614E+0x35>
   10586:	48 8b 48 10          	mov    0x10(%rax),%rcx
   1058a:	0f ae e8             	lfence 
   1058d:	48 85 c9             	test   %rcx,%rcx
   10590:	74 13                	je     105a5 <_ZN4core3ptr178drop_in_place$LT$alloc..boxed..Box$LT$std..thread..local..os..Value$LT$core..cell..RefCell$LT$core..option..Option$LT$std..sys_common..thread_info..ThreadInfo$GT$$GT$$GT$$GT$$GT$17hb7149eac4cfb3614E+0x35>
   10592:	f0 48 83 29 01       	lock subq $0x1,(%rcx)
   10597:	0f ae e8             	lfence 
   1059a:	75 09                	jne    105a5 <_ZN4core3ptr178drop_in_place$LT$alloc..boxed..Box$LT$std..thread..local..os..Value$LT$core..cell..RefCell$LT$core..option..Option$LT$std..sys_common..thread_info..ThreadInfo$GT$$GT$$GT$$GT$$GT$17hb7149eac4cfb3614E+0x35>
   1059c:	48 8b 78 10          	mov    0x10(%rax),%rdi
   105a0:	e8 0b 22 00 00       	callq  127b0 <_ZN5alloc4sync12Arc$LT$T$GT$9drop_slow17h2f83396623d2cfb9E>
   105a5:	48 8b 3b             	mov    (%rbx),%rdi
   105a8:	be 20 00 00 00       	mov    $0x20,%esi
   105ad:	ba 08 00 00 00       	mov    $0x8,%edx
   105b2:	5b                   	pop    %rbx
   105b3:	e9 c8 e6 ff ff       	jmpq   ec80 <__rust_dealloc>
   105b8:	cc                   	int3   
   105b9:	cc                   	int3   
   105ba:	cc                   	int3   
   105bb:	cc                   	int3   
   105bc:	cc                   	int3   
   105bd:	cc                   	int3   
   105be:	cc                   	int3   
   105bf:	cc                   	int3   

00000000000105c0 <_ZN4core3ptr190drop_in_place$LT$core..option..Option$LT$std..sys..sgx..waitqueue..spin_mutex..SpinMutexGuard$LT$std..sys..sgx..waitqueue..WaitVariable$LT$std..sys..sgx..mutex..ReentrantLock$GT$$GT$$GT$$GT$17h75e157c53d304849E>:
   105c0:	0f ae e8             	lfence 
   105c3:	48 8b 07             	mov    (%rdi),%rax
   105c6:	0f ae e8             	lfence 
   105c9:	48 85 c0             	test   %rax,%rax
   105cc:	74 04                	je     105d2 <_ZN4core3ptr190drop_in_place$LT$core..option..Option$LT$std..sys..sgx..waitqueue..spin_mutex..SpinMutexGuard$LT$std..sys..sgx..waitqueue..WaitVariable$LT$std..sys..sgx..mutex..ReentrantLock$GT$$GT$$GT$$GT$17h75e157c53d304849E+0x12>
   105ce:	c6 40 48 00          	movb   $0x0,0x48(%rax)
   105d2:	58                   	pop    %rax
   105d3:	0f ae e8             	lfence 
   105d6:	ff e0                	jmpq   *%rax
   105d8:	cc                   	int3   
   105d9:	cc                   	int3   
   105da:	cc                   	int3   
   105db:	cc                   	int3   
   105dc:	cc                   	int3   
   105dd:	cc                   	int3   
   105de:	cc                   	int3   
   105df:	cc                   	int3   

00000000000105e0 <_ZN4core3ptr199drop_in_place$LT$std..sync..mpsc..spsc_queue..Queue$LT$std..sync..mpsc..stream..Message$LT$$LP$$RP$$GT$$C$std..sync..mpsc..stream..ProducerAddition$C$std..sync..mpsc..stream..ConsumerAddition$GT$$GT$17h4c7dc3bb990637d4E>:
   105e0:	41 56                	push   %r14
   105e2:	53                   	push   %rbx
   105e3:	50                   	push   %rax
   105e4:	0f ae e8             	lfence 
   105e7:	48 8b 5f 48          	mov    0x48(%rdi),%rbx
   105eb:	0f ae e8             	lfence 
   105ee:	48 85 db             	test   %rbx,%rbx
   105f1:	75 27                	jne    1061a <_ZN4core3ptr199drop_in_place$LT$std..sync..mpsc..spsc_queue..Queue$LT$std..sync..mpsc..stream..Message$LT$$LP$$RP$$GT$$C$std..sync..mpsc..stream..ProducerAddition$C$std..sync..mpsc..stream..ConsumerAddition$GT$$GT$17h4c7dc3bb990637d4E+0x3a>
   105f3:	48 83 c4 08          	add    $0x8,%rsp
   105f7:	5b                   	pop    %rbx
   105f8:	41 5e                	pop    %r14
   105fa:	58                   	pop    %rax
   105fb:	0f ae e8             	lfence 
   105fe:	ff e0                	jmpq   *%rax
   10600:	be 20 00 00 00       	mov    $0x20,%esi
   10605:	ba 08 00 00 00       	mov    $0x8,%edx
   1060a:	48 89 df             	mov    %rbx,%rdi
   1060d:	e8 6e e6 ff ff       	callq  ec80 <__rust_dealloc>
   10612:	4c 89 f3             	mov    %r14,%rbx
   10615:	4d 85 f6             	test   %r14,%r14
   10618:	74 d9                	je     105f3 <_ZN4core3ptr199drop_in_place$LT$std..sync..mpsc..spsc_queue..Queue$LT$std..sync..mpsc..stream..Message$LT$$LP$$RP$$GT$$C$std..sync..mpsc..stream..ProducerAddition$C$std..sync..mpsc..stream..ConsumerAddition$GT$$GT$17h4c7dc3bb990637d4E+0x13>
   1061a:	4c 8b 73 10          	mov    0x10(%rbx),%r14
   1061e:	0f ae e8             	lfence 
   10621:	8b 03                	mov    (%rbx),%eax
   10623:	0f ae e8             	lfence 
   10626:	83 e0 06             	and    $0x6,%eax
   10629:	83 f8 04             	cmp    $0x4,%eax
   1062c:	74 d2                	je     10600 <_ZN4core3ptr199drop_in_place$LT$std..sync..mpsc..spsc_queue..Queue$LT$std..sync..mpsc..stream..Message$LT$$LP$$RP$$GT$$C$std..sync..mpsc..stream..ProducerAddition$C$std..sync..mpsc..stream..ConsumerAddition$GT$$GT$17h4c7dc3bb990637d4E+0x20>
   1062e:	48 89 df             	mov    %rbx,%rdi
   10631:	e8 da 92 00 00       	callq  19910 <_ZN76_$LT$std..sync..mpsc..Receiver$LT$T$GT$$u20$as$u20$core..ops..drop..Drop$GT$4drop17h1bd75845d0bc866cE>
   10636:	48 8b 03             	mov    (%rbx),%rax
   10639:	0f ae e8             	lfence 
   1063c:	48 83 f8 02          	cmp    $0x2,%rax
   10640:	74 26                	je     10668 <_ZN4core3ptr199drop_in_place$LT$std..sync..mpsc..spsc_queue..Queue$LT$std..sync..mpsc..stream..Message$LT$$LP$$RP$$GT$$C$std..sync..mpsc..stream..ProducerAddition$C$std..sync..mpsc..stream..ConsumerAddition$GT$$GT$17h4c7dc3bb990637d4E+0x88>
   10642:	83 f8 01             	cmp    $0x1,%eax
   10645:	74 40                	je     10687 <_ZN4core3ptr199drop_in_place$LT$std..sync..mpsc..spsc_queue..Queue$LT$std..sync..mpsc..stream..Message$LT$$LP$$RP$$GT$$C$std..sync..mpsc..stream..ProducerAddition$C$std..sync..mpsc..stream..ConsumerAddition$GT$$GT$17h4c7dc3bb990637d4E+0xa7>
   10647:	48 85 c0             	test   %rax,%rax
   1064a:	75 5e                	jne    106aa <_ZN4core3ptr199drop_in_place$LT$std..sync..mpsc..spsc_queue..Queue$LT$std..sync..mpsc..stream..Message$LT$$LP$$RP$$GT$$C$std..sync..mpsc..stream..ProducerAddition$C$std..sync..mpsc..stream..ConsumerAddition$GT$$GT$17h4c7dc3bb990637d4E+0xca>
   1064c:	48 8b 43 08          	mov    0x8(%rbx),%rax
   10650:	0f ae e8             	lfence 
   10653:	f0 48 83 28 01       	lock subq $0x1,(%rax)
   10658:	0f ae e8             	lfence 
   1065b:	75 a3                	jne    10600 <_ZN4core3ptr199drop_in_place$LT$std..sync..mpsc..spsc_queue..Queue$LT$std..sync..mpsc..stream..Message$LT$$LP$$RP$$GT$$C$std..sync..mpsc..stream..ProducerAddition$C$std..sync..mpsc..stream..ConsumerAddition$GT$$GT$17h4c7dc3bb990637d4E+0x20>
   1065d:	48 8d 7b 08          	lea    0x8(%rbx),%rdi
   10661:	e8 da 21 00 00       	callq  12840 <_ZN5alloc4sync12Arc$LT$T$GT$9drop_slow17h33244e520422c953E>
   10666:	eb 98                	jmp    10600 <_ZN4core3ptr199drop_in_place$LT$std..sync..mpsc..spsc_queue..Queue$LT$std..sync..mpsc..stream..Message$LT$$LP$$RP$$GT$$C$std..sync..mpsc..stream..ProducerAddition$C$std..sync..mpsc..stream..ConsumerAddition$GT$$GT$17h4c7dc3bb990637d4E+0x20>
   10668:	48 8b 43 08          	mov    0x8(%rbx),%rax
   1066c:	0f ae e8             	lfence 
   1066f:	f0 48 83 28 01       	lock subq $0x1,(%rax)
   10674:	0f ae e8             	lfence 
   10677:	75 87                	jne    10600 <_ZN4core3ptr199drop_in_place$LT$std..sync..mpsc..spsc_queue..Queue$LT$std..sync..mpsc..stream..Message$LT$$LP$$RP$$GT$$C$std..sync..mpsc..stream..ProducerAddition$C$std..sync..mpsc..stream..ConsumerAddition$GT$$GT$17h4c7dc3bb990637d4E+0x20>
   10679:	48 8d 7b 08          	lea    0x8(%rbx),%rdi
   1067d:	e8 3e 23 00 00       	callq  129c0 <_ZN5alloc4sync12Arc$LT$T$GT$9drop_slow17h7843c6f1e66c2938E>
   10682:	e9 79 ff ff ff       	jmpq   10600 <_ZN4core3ptr199drop_in_place$LT$std..sync..mpsc..spsc_queue..Queue$LT$std..sync..mpsc..stream..Message$LT$$LP$$RP$$GT$$C$std..sync..mpsc..stream..ProducerAddition$C$std..sync..mpsc..stream..ConsumerAddition$GT$$GT$17h4c7dc3bb990637d4E+0x20>
   10687:	48 8b 43 08          	mov    0x8(%rbx),%rax
   1068b:	0f ae e8             	lfence 
   1068e:	f0 48 83 28 01       	lock subq $0x1,(%rax)
   10693:	0f ae e8             	lfence 
   10696:	0f 85 64 ff ff ff    	jne    10600 <_ZN4core3ptr199drop_in_place$LT$std..sync..mpsc..spsc_queue..Queue$LT$std..sync..mpsc..stream..Message$LT$$LP$$RP$$GT$$C$std..sync..mpsc..stream..ProducerAddition$C$std..sync..mpsc..stream..ConsumerAddition$GT$$GT$17h4c7dc3bb990637d4E+0x20>
   1069c:	48 8d 7b 08          	lea    0x8(%rbx),%rdi
   106a0:	e8 ab 24 00 00       	callq  12b50 <_ZN5alloc4sync12Arc$LT$T$GT$9drop_slow17h9ac76426e5e1f36cE>
   106a5:	e9 56 ff ff ff       	jmpq   10600 <_ZN4core3ptr199drop_in_place$LT$std..sync..mpsc..spsc_queue..Queue$LT$std..sync..mpsc..stream..Message$LT$$LP$$RP$$GT$$C$std..sync..mpsc..stream..ProducerAddition$C$std..sync..mpsc..stream..ConsumerAddition$GT$$GT$17h4c7dc3bb990637d4E+0x20>
   106aa:	48 8b 43 08          	mov    0x8(%rbx),%rax
   106ae:	0f ae e8             	lfence 
   106b1:	f0 48 83 28 01       	lock subq $0x1,(%rax)
   106b6:	0f ae e8             	lfence 
   106b9:	0f 85 41 ff ff ff    	jne    10600 <_ZN4core3ptr199drop_in_place$LT$std..sync..mpsc..spsc_queue..Queue$LT$std..sync..mpsc..stream..Message$LT$$LP$$RP$$GT$$C$std..sync..mpsc..stream..ProducerAddition$C$std..sync..mpsc..stream..ConsumerAddition$GT$$GT$17h4c7dc3bb990637d4E+0x20>
   106bf:	48 8d 7b 08          	lea    0x8(%rbx),%rdi
   106c3:	e8 88 26 00 00       	callq  12d50 <_ZN5alloc4sync12Arc$LT$T$GT$9drop_slow17ha547a3409d4a9fdaE>
   106c8:	e9 33 ff ff ff       	jmpq   10600 <_ZN4core3ptr199drop_in_place$LT$std..sync..mpsc..spsc_queue..Queue$LT$std..sync..mpsc..stream..Message$LT$$LP$$RP$$GT$$C$std..sync..mpsc..stream..ProducerAddition$C$std..sync..mpsc..stream..ConsumerAddition$GT$$GT$17h4c7dc3bb990637d4E+0x20>
   106cd:	eb 0d                	jmp    106dc <_ZN4core3ptr199drop_in_place$LT$std..sync..mpsc..spsc_queue..Queue$LT$std..sync..mpsc..stream..Message$LT$$LP$$RP$$GT$$C$std..sync..mpsc..stream..ProducerAddition$C$std..sync..mpsc..stream..ConsumerAddition$GT$$GT$17h4c7dc3bb990637d4E+0xfc>
   106cf:	49 89 c6             	mov    %rax,%r14
   106d2:	48 89 df             	mov    %rbx,%rdi
   106d5:	e8 16 12 00 00       	callq  118f0 <_ZN4core3ptr90drop_in_place$LT$core..cell..UnsafeCell$LT$std..sync..mpsc..Flavor$LT$$LP$$RP$$GT$$GT$$GT$17hec50c233472dcb45E>
   106da:	eb 03                	jmp    106df <_ZN4core3ptr199drop_in_place$LT$std..sync..mpsc..spsc_queue..Queue$LT$std..sync..mpsc..stream..Message$LT$$LP$$RP$$GT$$C$std..sync..mpsc..stream..ProducerAddition$C$std..sync..mpsc..stream..ConsumerAddition$GT$$GT$17h4c7dc3bb990637d4E+0xff>
   106dc:	49 89 c6             	mov    %rax,%r14
   106df:	48 89 df             	mov    %rbx,%rdi
   106e2:	e8 29 29 00 00       	callq  13010 <_ZN5alloc5alloc8box_free17h06629ceae0d965d4E>
   106e7:	4c 89 f7             	mov    %r14,%rdi
   106ea:	e8 11 75 01 00       	callq  27c00 <_Unwind_Resume>
   106ef:	0f 0b                	ud2    
   106f1:	cc                   	int3   
   106f2:	cc                   	int3   
   106f3:	cc                   	int3   
   106f4:	cc                   	int3   
   106f5:	cc                   	int3   
   106f6:	cc                   	int3   
   106f7:	cc                   	int3   
   106f8:	cc                   	int3   
   106f9:	cc                   	int3   
   106fa:	cc                   	int3   
   106fb:	cc                   	int3   
   106fc:	cc                   	int3   
   106fd:	cc                   	int3   
   106fe:	cc                   	int3   
   106ff:	cc                   	int3   

0000000000010700 <_ZN4core3ptr209drop_in_place$LT$core..result..Result$LT$std..sys..sgx..waitqueue..WaitGuard$LT$bool$GT$$C$std..sys..sgx..waitqueue..spin_mutex..SpinMutexGuard$LT$std..sys..sgx..waitqueue..WaitVariable$LT$bool$GT$$GT$$GT$$GT$17hf0813e5713669e17E>:
   10700:	0f ae e8             	lfence 
   10703:	48 89 f8             	mov    %rdi,%rax
   10706:	48 83 c7 08          	add    $0x8,%rdi
   1070a:	48 83 38 00          	cmpq   $0x0,(%rax)
   1070e:	0f ae e8             	lfence 
   10711:	74 10                	je     10723 <_ZN4core3ptr209drop_in_place$LT$core..result..Result$LT$std..sys..sgx..waitqueue..WaitGuard$LT$bool$GT$$C$std..sys..sgx..waitqueue..spin_mutex..SpinMutexGuard$LT$std..sys..sgx..waitqueue..WaitVariable$LT$bool$GT$$GT$$GT$$GT$17hf0813e5713669e17E+0x23>
   10713:	48 8b 07             	mov    (%rdi),%rax
   10716:	0f ae e8             	lfence 
   10719:	c6 40 40 00          	movb   $0x0,0x40(%rax)
   1071d:	58                   	pop    %rax
   1071e:	0f ae e8             	lfence 
   10721:	ff e0                	jmpq   *%rax
   10723:	e9 c8 f9 ff ff       	jmpq   100f0 <_ZN4core3ptr124drop_in_place$LT$std..sys..sgx..waitqueue..WaitGuard$LT$core..option..Option$LT$core..num..nonzero..NonZeroUsize$GT$$GT$$GT$17h627b1f298d883cd8E>
   10728:	cc                   	int3   
   10729:	cc                   	int3   
   1072a:	cc                   	int3   
   1072b:	cc                   	int3   
   1072c:	cc                   	int3   
   1072d:	cc                   	int3   
   1072e:	cc                   	int3   
   1072f:	cc                   	int3   

0000000000010730 <_ZN4core3ptr215drop_in_place$LT$alloc..boxed..Box$LT$std..thread..local..os..Value$LT$core..cell..Cell$LT$core..option..Option$LT$alloc..sync..Arc$LT$std..sync..mutex..Mutex$LT$alloc..vec..Vec$LT$u8$GT$$GT$$GT$$GT$$GT$$GT$$GT$$GT$17h8f67d6affcfb0f48E>:
   10730:	53                   	push   %rbx
   10731:	0f ae e8             	lfence 
   10734:	48 89 fb             	mov    %rdi,%rbx
   10737:	48 8b 07             	mov    (%rdi),%rax
   1073a:	0f ae e8             	lfence 
   1073d:	48 83 38 00          	cmpq   $0x0,(%rax)
   10741:	0f ae e8             	lfence 
   10744:	74 1f                	je     10765 <_ZN4core3ptr215drop_in_place$LT$alloc..boxed..Box$LT$std..thread..local..os..Value$LT$core..cell..Cell$LT$core..option..Option$LT$alloc..sync..Arc$LT$std..sync..mutex..Mutex$LT$alloc..vec..Vec$LT$u8$GT$$GT$$GT$$GT$$GT$$GT$$GT$$GT$17h8f67d6affcfb0f48E+0x35>
   10746:	48 8b 48 08          	mov    0x8(%rax),%rcx
   1074a:	0f ae e8             	lfence 
   1074d:	48 85 c9             	test   %rcx,%rcx
   10750:	74 13                	je     10765 <_ZN4core3ptr215drop_in_place$LT$alloc..boxed..Box$LT$std..thread..local..os..Value$LT$core..cell..Cell$LT$core..option..Option$LT$alloc..sync..Arc$LT$std..sync..mutex..Mutex$LT$alloc..vec..Vec$LT$u8$GT$$GT$$GT$$GT$$GT$$GT$$GT$$GT$17h8f67d6affcfb0f48E+0x35>
   10752:	f0 48 83 29 01       	lock subq $0x1,(%rcx)
   10757:	0f ae e8             	lfence 
   1075a:	75 09                	jne    10765 <_ZN4core3ptr215drop_in_place$LT$alloc..boxed..Box$LT$std..thread..local..os..Value$LT$core..cell..Cell$LT$core..option..Option$LT$alloc..sync..Arc$LT$std..sync..mutex..Mutex$LT$alloc..vec..Vec$LT$u8$GT$$GT$$GT$$GT$$GT$$GT$$GT$$GT$17h8f67d6affcfb0f48E+0x35>
   1075c:	48 8b 78 08          	mov    0x8(%rax),%rdi
   10760:	e8 db 1f 00 00       	callq  12740 <_ZN5alloc4sync12Arc$LT$T$GT$9drop_slow17h00035ed6738a8076E>
   10765:	48 8b 3b             	mov    (%rbx),%rdi
   10768:	be 18 00 00 00       	mov    $0x18,%esi
   1076d:	ba 08 00 00 00       	mov    $0x8,%edx
   10772:	5b                   	pop    %rbx
   10773:	e9 08 e5 ff ff       	jmpq   ec80 <__rust_dealloc>
   10778:	cc                   	int3   
   10779:	cc                   	int3   
   1077a:	cc                   	int3   
   1077b:	cc                   	int3   
   1077c:	cc                   	int3   
   1077d:	cc                   	int3   
   1077e:	cc                   	int3   
   1077f:	cc                   	int3   

0000000000010780 <_ZN4core3ptr217drop_in_place$LT$core..result..Result$LT$std..sys..sgx..waitqueue..WaitGuard$LT$$LP$$RP$$GT$$C$std..sys..sgx..waitqueue..spin_mutex..SpinMutexGuard$LT$std..sys..sgx..waitqueue..WaitVariable$LT$$LP$$RP$$GT$$GT$$GT$$GT$17h2c96570372d14b65E>:
   10780:	41 56                	push   %r14
   10782:	53                   	push   %rbx
   10783:	48 83 ec 58          	sub    $0x58,%rsp
   10787:	0f ae e8             	lfence 
   1078a:	48 8d 5f 08          	lea    0x8(%rdi),%rbx
   1078e:	48 83 3f 00          	cmpq   $0x0,(%rdi)
   10792:	0f ae e8             	lfence 
   10795:	74 08                	je     1079f <_ZN4core3ptr217drop_in_place$LT$core..result..Result$LT$std..sys..sgx..waitqueue..WaitGuard$LT$$LP$$RP$$GT$$C$std..sys..sgx..waitqueue..spin_mutex..SpinMutexGuard$LT$std..sys..sgx..waitqueue..WaitVariable$LT$$LP$$RP$$GT$$GT$$GT$$GT$17h2c96570372d14b65E+0x1f>
   10797:	48 8b 03             	mov    (%rbx),%rax
   1079a:	0f ae e8             	lfence 
   1079d:	eb 53                	jmp    107f2 <_ZN4core3ptr217drop_in_place$LT$core..result..Result$LT$std..sys..sgx..waitqueue..WaitGuard$LT$$LP$$RP$$GT$$C$std..sys..sgx..waitqueue..spin_mutex..SpinMutexGuard$LT$std..sys..sgx..waitqueue..WaitVariable$LT$$LP$$RP$$GT$$GT$$GT$$GT$17h2c96570372d14b65E+0x72>
   1079f:	48 8b 03             	mov    (%rbx),%rax
   107a2:	0f ae e8             	lfence 
   107a5:	48 c7 03 00 00 00 00 	movq   $0x0,(%rbx)
   107ac:	48 85 c0             	test   %rax,%rax
   107af:	74 04                	je     107b5 <_ZN4core3ptr217drop_in_place$LT$core..result..Result$LT$std..sys..sgx..waitqueue..WaitGuard$LT$$LP$$RP$$GT$$C$std..sys..sgx..waitqueue..spin_mutex..SpinMutexGuard$LT$std..sys..sgx..waitqueue..WaitVariable$LT$$LP$$RP$$GT$$GT$$GT$$GT$17h2c96570372d14b65E+0x35>
   107b1:	c6 40 38 00          	movb   $0x0,0x38(%rax)
   107b5:	83 7f 10 01          	cmpl   $0x1,0x10(%rdi)
   107b9:	0f ae e8             	lfence 
   107bc:	ba 00 00 00 00       	mov    $0x0,%edx
   107c1:	74 04                	je     107c7 <_ZN4core3ptr217drop_in_place$LT$core..result..Result$LT$std..sys..sgx..waitqueue..WaitGuard$LT$$LP$$RP$$GT$$C$std..sys..sgx..waitqueue..spin_mutex..SpinMutexGuard$LT$std..sys..sgx..waitqueue..WaitVariable$LT$$LP$$RP$$GT$$GT$$GT$$GT$17h2c96570372d14b65E+0x47>
   107c3:	48 8b 57 18          	mov    0x18(%rdi),%rdx
   107c7:	bf 0c 00 00 00       	mov    $0xc,%edi
   107cc:	be 04 00 00 00       	mov    $0x4,%esi
   107d1:	31 c9                	xor    %ecx,%ecx
   107d3:	45 31 c0             	xor    %r8d,%r8d
   107d6:	45 31 c9             	xor    %r9d,%r9d
   107d9:	e8 d5 e6 ff ff       	callq  eeb3 <usercall>
   107de:	48 85 d2             	test   %rdx,%rdx
   107e1:	75 20                	jne    10803 <_ZN4core3ptr217drop_in_place$LT$core..result..Result$LT$std..sys..sgx..waitqueue..WaitGuard$LT$$LP$$RP$$GT$$C$std..sys..sgx..waitqueue..spin_mutex..SpinMutexGuard$LT$std..sys..sgx..waitqueue..WaitVariable$LT$$LP$$RP$$GT$$GT$$GT$$GT$17h2c96570372d14b65E+0x83>
   107e3:	85 c0                	test   %eax,%eax
   107e5:	75 5b                	jne    10842 <_ZN4core3ptr217drop_in_place$LT$core..result..Result$LT$std..sys..sgx..waitqueue..WaitGuard$LT$$LP$$RP$$GT$$C$std..sys..sgx..waitqueue..spin_mutex..SpinMutexGuard$LT$std..sys..sgx..waitqueue..WaitVariable$LT$$LP$$RP$$GT$$GT$$GT$$GT$17h2c96570372d14b65E+0xc2>
   107e7:	48 8b 03             	mov    (%rbx),%rax
   107ea:	0f ae e8             	lfence 
   107ed:	48 85 c0             	test   %rax,%rax
   107f0:	74 04                	je     107f6 <_ZN4core3ptr217drop_in_place$LT$core..result..Result$LT$std..sys..sgx..waitqueue..WaitGuard$LT$$LP$$RP$$GT$$C$std..sys..sgx..waitqueue..spin_mutex..SpinMutexGuard$LT$std..sys..sgx..waitqueue..WaitVariable$LT$$LP$$RP$$GT$$GT$$GT$$GT$17h2c96570372d14b65E+0x76>
   107f2:	c6 40 38 00          	movb   $0x0,0x38(%rax)
   107f6:	48 83 c4 58          	add    $0x58,%rsp
   107fa:	5b                   	pop    %rbx
   107fb:	41 5e                	pop    %r14
   107fd:	58                   	pop    %rax
   107fe:	0f ae e8             	lfence 
   10801:	ff e0                	jmpq   *%rax
   10803:	48 8d 05 4e 40 02 00 	lea    0x2404e(%rip),%rax        # 34858 <_ZN9libunwind13DwarfFDECacheINS_17LocalAddressSpaceEE10_bufferEndE+0x11f0>
   1080a:	48 89 44 24 18       	mov    %rax,0x18(%rsp)
   1080f:	48 c7 44 24 20 01 00 	movq   $0x1,0x20(%rsp)
   10816:	00 00 
   10818:	48 c7 44 24 28 00 00 	movq   $0x0,0x28(%rsp)
   1081f:	00 00 
   10821:	48 8d 05 80 47 ff ff 	lea    -0xb880(%rip),%rax        # 4fa8 <EH_FRM_LEN+0x368>
   10828:	48 89 44 24 38       	mov    %rax,0x38(%rsp)
   1082d:	48 c7 44 24 40 00 00 	movq   $0x0,0x40(%rsp)
   10834:	00 00 
   10836:	48 8d 7c 24 18       	lea    0x18(%rsp),%rdi
   1083b:	e8 c0 ac 00 00       	callq  1b500 <_ZN3std10sys_common4util5abort17h9acf05c9cc235988E>
   10840:	eb 71                	jmp    108b3 <_ZN4core3ptr217drop_in_place$LT$core..result..Result$LT$std..sys..sgx..waitqueue..WaitGuard$LT$$LP$$RP$$GT$$C$std..sys..sgx..waitqueue..spin_mutex..SpinMutexGuard$LT$std..sys..sgx..waitqueue..WaitVariable$LT$$LP$$RP$$GT$$GT$$GT$$GT$17h2c96570372d14b65E+0x133>
   10842:	89 c7                	mov    %eax,%edi
   10844:	e8 07 e4 00 00       	callq  1ec50 <_ZN3std3sys3sgx3abi9usercalls14check_os_error17ha330e02bc34d1c72E>
   10849:	48 c1 e0 20          	shl    $0x20,%rax
   1084d:	48 89 04 24          	mov    %rax,(%rsp)
   10851:	48 c7 44 24 08 00 00 	movq   $0x0,0x8(%rsp)
   10858:	00 00 
   1085a:	48 89 e0             	mov    %rsp,%rax
   1085d:	48 89 44 24 10       	mov    %rax,0x10(%rsp)
   10862:	48 8d 44 24 10       	lea    0x10(%rsp),%rax
   10867:	48 89 44 24 48       	mov    %rax,0x48(%rsp)
   1086c:	48 8d 05 8d 2b 00 00 	lea    0x2b8d(%rip),%rax        # 13400 <_ZN70_$LT$core..result..Result$LT$T$C$E$GT$$u20$as$u20$core..fmt..Debug$GT$3fmt17h3f28b5417cf825e9E>
   10873:	48 89 44 24 50       	mov    %rax,0x50(%rsp)
   10878:	48 8d 05 d1 40 02 00 	lea    0x240d1(%rip),%rax        # 34950 <_ZN9libunwind13DwarfFDECacheINS_17LocalAddressSpaceEE10_bufferEndE+0x12e8>
   1087f:	48 89 44 24 18       	mov    %rax,0x18(%rsp)
   10884:	48 c7 44 24 20 01 00 	movq   $0x1,0x20(%rsp)
   1088b:	00 00 
   1088d:	48 c7 44 24 28 00 00 	movq   $0x0,0x28(%rsp)
   10894:	00 00 
   10896:	48 8d 44 24 48       	lea    0x48(%rsp),%rax
   1089b:	48 89 44 24 38       	mov    %rax,0x38(%rsp)
   108a0:	48 c7 44 24 40 01 00 	movq   $0x1,0x40(%rsp)
   108a7:	00 00 
   108a9:	48 8d 7c 24 18       	lea    0x18(%rsp),%rdi
   108ae:	e8 4d ac 00 00       	callq  1b500 <_ZN3std10sys_common4util5abort17h9acf05c9cc235988E>
   108b3:	0f 0b                	ud2    
   108b5:	49 89 c6             	mov    %rax,%r14
   108b8:	48 89 e7             	mov    %rsp,%rdi
   108bb:	e8 00 0e 00 00       	callq  116c0 <_ZN4core3ptr81drop_in_place$LT$core..result..Result$LT$$LP$$RP$$C$std..io..error..Error$GT$$GT$17h0385fabadcbcc0c0E>
   108c0:	eb 03                	jmp    108c5 <_ZN4core3ptr217drop_in_place$LT$core..result..Result$LT$std..sys..sgx..waitqueue..WaitGuard$LT$$LP$$RP$$GT$$C$std..sys..sgx..waitqueue..spin_mutex..SpinMutexGuard$LT$std..sys..sgx..waitqueue..WaitVariable$LT$$LP$$RP$$GT$$GT$$GT$$GT$17h2c96570372d14b65E+0x145>
   108c2:	49 89 c6             	mov    %rax,%r14
   108c5:	48 89 df             	mov    %rbx,%rdi
   108c8:	e8 03 fb ff ff       	callq  103d0 <_ZN4core3ptr163drop_in_place$LT$core..option..Option$LT$std..sys..sgx..waitqueue..spin_mutex..SpinMutexGuard$LT$std..sys..sgx..waitqueue..WaitVariable$LT$$LP$$RP$$GT$$GT$$GT$$GT$17h3a9835c86a58e964E>
   108cd:	4c 89 f7             	mov    %r14,%rdi
   108d0:	e8 2b 73 01 00       	callq  27c00 <_Unwind_Resume>
   108d5:	0f 0b                	ud2    
   108d7:	cc                   	int3   
   108d8:	cc                   	int3   
   108d9:	cc                   	int3   
   108da:	cc                   	int3   
   108db:	cc                   	int3   
   108dc:	cc                   	int3   
   108dd:	cc                   	int3   
   108de:	cc                   	int3   
   108df:	cc                   	int3   

00000000000108e0 <_ZN4core3ptr226drop_in_place$LT$std..error..$LT$impl$u20$core..convert..From$LT$alloc..string..String$GT$$u20$for$u20$alloc..boxed..Box$LT$dyn$u20$std..error..Error$u2b$core..marker..Send$u2b$core..marker..Sync$GT$$GT$..from..StringError$GT$17ha8aaf31fb8a1ee2eE>:
   108e0:	0f ae e8             	lfence 
   108e3:	48 89 f8             	mov    %rdi,%rax
   108e6:	48 8b 3f             	mov    (%rdi),%rdi
   108e9:	0f ae e8             	lfence 
   108ec:	48 85 ff             	test   %rdi,%rdi
   108ef:	74 16                	je     10907 <_ZN4core3ptr226drop_in_place$LT$std..error..$LT$impl$u20$core..convert..From$LT$alloc..string..String$GT$$u20$for$u20$alloc..boxed..Box$LT$dyn$u20$std..error..Error$u2b$core..marker..Send$u2b$core..marker..Sync$GT$$GT$..from..StringError$GT$17ha8aaf31fb8a1ee2eE+0x27>
   108f1:	48 8b 70 08          	mov    0x8(%rax),%rsi
   108f5:	0f ae e8             	lfence 
   108f8:	48 85 f6             	test   %rsi,%rsi
   108fb:	74 0a                	je     10907 <_ZN4core3ptr226drop_in_place$LT$std..error..$LT$impl$u20$core..convert..From$LT$alloc..string..String$GT$$u20$for$u20$alloc..boxed..Box$LT$dyn$u20$std..error..Error$u2b$core..marker..Send$u2b$core..marker..Sync$GT$$GT$..from..StringError$GT$17ha8aaf31fb8a1ee2eE+0x27>
   108fd:	ba 01 00 00 00       	mov    $0x1,%edx
   10902:	e9 79 e3 ff ff       	jmpq   ec80 <__rust_dealloc>
   10907:	58                   	pop    %rax
   10908:	0f ae e8             	lfence 
   1090b:	ff e0                	jmpq   *%rax
   1090d:	cc                   	int3   
   1090e:	cc                   	int3   
   1090f:	cc                   	int3   

0000000000010910 <_ZN4core3ptr264drop_in_place$LT$$LT$alloc..vec..into_iter..IntoIter$LT$T$C$A$GT$$u20$as$u20$core..ops..drop..Drop$GT$..drop..DropGuard$LT$alloc..boxed..Box$LT$dyn$u20$core..ops..function..FnOnce$LT$$LP$$RP$$GT$$u2b$Output$u20$$u3d$$u20$$LP$$RP$$GT$$C$alloc..alloc..Global$GT$$GT$17hf555b5537b6153ceE>:
   10910:	0f ae e8             	lfence 
   10913:	48 8b 07             	mov    (%rdi),%rax
   10916:	0f ae e8             	lfence 
   10919:	48 8b 70 08          	mov    0x8(%rax),%rsi
   1091d:	0f ae e8             	lfence 
   10920:	48 85 f6             	test   %rsi,%rsi
   10923:	74 13                	je     10938 <_ZN4core3ptr264drop_in_place$LT$$LT$alloc..vec..into_iter..IntoIter$LT$T$C$A$GT$$u20$as$u20$core..ops..drop..Drop$GT$..drop..DropGuard$LT$alloc..boxed..Box$LT$dyn$u20$core..ops..function..FnOnce$LT$$LP$$RP$$GT$$u2b$Output$u20$$u3d$$u20$$LP$$RP$$GT$$C$alloc..alloc..Global$GT$$GT$17hf555b5537b6153ceE+0x28>
   10925:	48 c1 e6 04          	shl    $0x4,%rsi
   10929:	74 0d                	je     10938 <_ZN4core3ptr264drop_in_place$LT$$LT$alloc..vec..into_iter..IntoIter$LT$T$C$A$GT$$u20$as$u20$core..ops..drop..Drop$GT$..drop..DropGuard$LT$alloc..boxed..Box$LT$dyn$u20$core..ops..function..FnOnce$LT$$LP$$RP$$GT$$u2b$Output$u20$$u3d$$u20$$LP$$RP$$GT$$C$alloc..alloc..Global$GT$$GT$17hf555b5537b6153ceE+0x28>
   1092b:	48 8b 38             	mov    (%rax),%rdi
   1092e:	ba 08 00 00 00       	mov    $0x8,%edx
   10933:	e9 48 e3 ff ff       	jmpq   ec80 <__rust_dealloc>
   10938:	58                   	pop    %rax
   10939:	0f ae e8             	lfence 
   1093c:	ff e0                	jmpq   *%rax
   1093e:	cc                   	int3   
   1093f:	cc                   	int3   

0000000000010940 <_ZN4core3ptr321drop_in_place$LT$core..result..Result$LT$std..sys..sgx..waitqueue..WaitGuard$LT$core..option..Option$LT$core..num..nonzero..NonZeroUsize$GT$$GT$$C$std..sys..sgx..waitqueue..spin_mutex..SpinMutexGuard$LT$std..sys..sgx..waitqueue..WaitVariable$LT$core..option..Option$LT$core..num..nonzero..NonZeroUsize$GT$$GT$$GT$$GT$$GT$17h454089a9ffd6d383E>:
   10940:	0f ae e8             	lfence 
   10943:	48 89 f8             	mov    %rdi,%rax
   10946:	48 83 c7 08          	add    $0x8,%rdi
   1094a:	48 83 38 00          	cmpq   $0x0,(%rax)
   1094e:	0f ae e8             	lfence 
   10951:	74 10                	je     10963 <_ZN4core3ptr321drop_in_place$LT$core..result..Result$LT$std..sys..sgx..waitqueue..WaitGuard$LT$core..option..Option$LT$core..num..nonzero..NonZeroUsize$GT$$GT$$C$std..sys..sgx..waitqueue..spin_mutex..SpinMutexGuard$LT$std..sys..sgx..waitqueue..WaitVariable$LT$core..option..Option$LT$core..num..nonzero..NonZeroUsize$GT$$GT$$GT$$GT$$GT$17h454089a9ffd6d383E+0x23>
   10953:	48 8b 07             	mov    (%rdi),%rax
   10956:	0f ae e8             	lfence 
   10959:	c6 40 40 00          	movb   $0x0,0x40(%rax)
   1095d:	58                   	pop    %rax
   1095e:	0f ae e8             	lfence 
   10961:	ff e0                	jmpq   *%rax
   10963:	e9 88 f7 ff ff       	jmpq   100f0 <_ZN4core3ptr124drop_in_place$LT$std..sys..sgx..waitqueue..WaitGuard$LT$core..option..Option$LT$core..num..nonzero..NonZeroUsize$GT$$GT$$GT$17h627b1f298d883cd8E>
   10968:	cc                   	int3   
   10969:	cc                   	int3   
   1096a:	cc                   	int3   
   1096b:	cc                   	int3   
   1096c:	cc                   	int3   
   1096d:	cc                   	int3   
   1096e:	cc                   	int3   
   1096f:	cc                   	int3   

0000000000010970 <_ZN4core3ptr39drop_in_place$LT$std..path..PathBuf$GT$17hf844e86889ab8987E>:
   10970:	0f ae e8             	lfence 
   10973:	48 89 f8             	mov    %rdi,%rax
   10976:	48 8b 3f             	mov    (%rdi),%rdi
   10979:	0f ae e8             	lfence 
   1097c:	48 85 ff             	test   %rdi,%rdi
   1097f:	74 16                	je     10997 <_ZN4core3ptr39drop_in_place$LT$std..path..PathBuf$GT$17hf844e86889ab8987E+0x27>
   10981:	48 8b 70 08          	mov    0x8(%rax),%rsi
   10985:	0f ae e8             	lfence 
   10988:	48 85 f6             	test   %rsi,%rsi
   1098b:	74 0a                	je     10997 <_ZN4core3ptr39drop_in_place$LT$std..path..PathBuf$GT$17hf844e86889ab8987E+0x27>
   1098d:	ba 01 00 00 00       	mov    $0x1,%edx
   10992:	e9 e9 e2 ff ff       	jmpq   ec80 <__rust_dealloc>
   10997:	58                   	pop    %rax
   10998:	0f ae e8             	lfence 
   1099b:	ff e0                	jmpq   *%rax
   1099d:	cc                   	int3   
   1099e:	cc                   	int3   
   1099f:	cc                   	int3   

00000000000109a0 <_ZN4core3ptr40drop_in_place$LT$std..thread..Thread$GT$17hc822ee71cf5e8c2eE>:
   109a0:	0f ae e8             	lfence 
   109a3:	48 8b 07             	mov    (%rdi),%rax
   109a6:	0f ae e8             	lfence 
   109a9:	f0 48 83 28 01       	lock subq $0x1,(%rax)
   109ae:	0f ae e8             	lfence 
   109b1:	75 08                	jne    109bb <_ZN4core3ptr40drop_in_place$LT$std..thread..Thread$GT$17hc822ee71cf5e8c2eE+0x1b>
   109b3:	48 8b 3f             	mov    (%rdi),%rdi
   109b6:	e9 f5 1d 00 00       	jmpq   127b0 <_ZN5alloc4sync12Arc$LT$T$GT$9drop_slow17h2f83396623d2cfb9E>
   109bb:	58                   	pop    %rax
   109bc:	0f ae e8             	lfence 
   109bf:	ff e0                	jmpq   *%rax
   109c1:	cc                   	int3   
   109c2:	cc                   	int3   
   109c3:	cc                   	int3   
   109c4:	cc                   	int3   
   109c5:	cc                   	int3   
   109c6:	cc                   	int3   
   109c7:	cc                   	int3   
   109c8:	cc                   	int3   
   109c9:	cc                   	int3   
   109ca:	cc                   	int3   
   109cb:	cc                   	int3   
   109cc:	cc                   	int3   
   109cd:	cc                   	int3   
   109ce:	cc                   	int3   
   109cf:	cc                   	int3   

00000000000109d0 <_ZN4core3ptr42drop_in_place$LT$std..io..error..Error$GT$17haf551c99fcf465a1E>:
   109d0:	41 57                	push   %r15
   109d2:	41 56                	push   %r14
   109d4:	53                   	push   %rbx
   109d5:	0f ae e8             	lfence 
   109d8:	80 3f 03             	cmpb   $0x3,(%rdi)
   109db:	0f ae e8             	lfence 
   109de:	75 53                	jne    10a33 <_ZN4core3ptr42drop_in_place$LT$std..io..error..Error$GT$17haf551c99fcf465a1E+0x63>
   109e0:	49 89 ff             	mov    %rdi,%r15
   109e3:	48 8b 5f 08          	mov    0x8(%rdi),%rbx
   109e7:	0f ae e8             	lfence 
   109ea:	48 8b 3b             	mov    (%rbx),%rdi
   109ed:	48 8b 43 08          	mov    0x8(%rbx),%rax
   109f1:	0f ae e8             	lfence 
   109f4:	4c 8b 18             	mov    (%rax),%r11
   109f7:	e8 a4 df ff ff       	callq  e9a0 <__llvm_lvi_thunk_r11>
   109fc:	48 8b 43 08          	mov    0x8(%rbx),%rax
   10a00:	0f ae e8             	lfence 
   10a03:	48 8b 70 08          	mov    0x8(%rax),%rsi
   10a07:	0f ae e8             	lfence 
   10a0a:	48 85 f6             	test   %rsi,%rsi
   10a0d:	74 0c                	je     10a1b <_ZN4core3ptr42drop_in_place$LT$std..io..error..Error$GT$17haf551c99fcf465a1E+0x4b>
   10a0f:	48 8b 3b             	mov    (%rbx),%rdi
   10a12:	48 8b 50 10          	mov    0x10(%rax),%rdx
   10a16:	e8 65 e2 ff ff       	callq  ec80 <__rust_dealloc>
   10a1b:	49 8b 7f 08          	mov    0x8(%r15),%rdi
   10a1f:	be 18 00 00 00       	mov    $0x18,%esi
   10a24:	ba 08 00 00 00       	mov    $0x8,%edx
   10a29:	5b                   	pop    %rbx
   10a2a:	41 5e                	pop    %r14
   10a2c:	41 5f                	pop    %r15
   10a2e:	e9 4d e2 ff ff       	jmpq   ec80 <__rust_dealloc>
   10a33:	5b                   	pop    %rbx
   10a34:	41 5e                	pop    %r14
   10a36:	41 5f                	pop    %r15
   10a38:	58                   	pop    %rax
   10a39:	0f ae e8             	lfence 
   10a3c:	ff e0                	jmpq   *%rax
   10a3e:	49 89 c6             	mov    %rax,%r14
   10a41:	48 8b 3b             	mov    (%rbx),%rdi
   10a44:	48 8b 73 08          	mov    0x8(%rbx),%rsi
   10a48:	e8 e3 25 00 00       	callq  13030 <_ZN5alloc5alloc8box_free17h5b701317a99e898bE>
   10a4d:	49 8b 7f 08          	mov    0x8(%r15),%rdi
   10a51:	e8 ca 25 00 00       	callq  13020 <_ZN5alloc5alloc8box_free17h4ad8baae80fc3406E>
   10a56:	4c 89 f7             	mov    %r14,%rdi
   10a59:	e8 a2 71 01 00       	callq  27c00 <_Unwind_Resume>
   10a5e:	0f 0b                	ud2    

0000000000010a60 <_ZN4core3ptr44drop_in_place$LT$std..backtrace_rs..Bomb$GT$17hdfaffeed98c0af19E>:
   10a60:	50                   	push   %rax
   10a61:	0f ae e8             	lfence 
   10a64:	40 84 ff             	test   %dil,%dil
   10a67:	75 07                	jne    10a70 <_ZN4core3ptr44drop_in_place$LT$std..backtrace_rs..Bomb$GT$17hdfaffeed98c0af19E+0x10>
   10a69:	58                   	pop    %rax
   10a6a:	58                   	pop    %rax
   10a6b:	0f ae e8             	lfence 
   10a6e:	ff e0                	jmpq   *%rax
   10a70:	48 8d 3d 1c 52 ff ff 	lea    -0xade4(%rip),%rdi        # 5c93 <EH_FRM_LEN+0x1053>
   10a77:	48 8d 15 5a 3b 02 00 	lea    0x23b5a(%rip),%rdx        # 345d8 <_ZN9libunwind13DwarfFDECacheINS_17LocalAddressSpaceEE10_bufferEndE+0xf70>
   10a7e:	be 2a 00 00 00       	mov    $0x2a,%esi
   10a83:	e8 08 bf 00 00       	callq  1c990 <_ZN3std9panicking11begin_panic17h5de6ef3e12810b98E>
   10a88:	0f 0b                	ud2    
   10a8a:	cc                   	int3   
   10a8b:	cc                   	int3   
   10a8c:	cc                   	int3   
   10a8d:	cc                   	int3   
   10a8e:	cc                   	int3   
   10a8f:	cc                   	int3   

0000000000010a90 <_ZN4core3ptr44drop_in_place$LT$std..sync..once..Waiter$GT$17hba502a283cbb19daE>:
   10a90:	0f ae e8             	lfence 
   10a93:	48 8b 07             	mov    (%rdi),%rax
   10a96:	0f ae e8             	lfence 
   10a99:	48 85 c0             	test   %rax,%rax
   10a9c:	74 12                	je     10ab0 <_ZN4core3ptr44drop_in_place$LT$std..sync..once..Waiter$GT$17hba502a283cbb19daE+0x20>
   10a9e:	f0 48 83 28 01       	lock subq $0x1,(%rax)
   10aa3:	0f ae e8             	lfence 
   10aa6:	75 08                	jne    10ab0 <_ZN4core3ptr44drop_in_place$LT$std..sync..once..Waiter$GT$17hba502a283cbb19daE+0x20>
   10aa8:	48 8b 3f             	mov    (%rdi),%rdi
   10aab:	e9 00 1d 00 00       	jmpq   127b0 <_ZN5alloc4sync12Arc$LT$T$GT$9drop_slow17h2f83396623d2cfb9E>
   10ab0:	58                   	pop    %rax
   10ab1:	0f ae e8             	lfence 
   10ab4:	ff e0                	jmpq   *%rax
   10ab6:	cc                   	int3   
   10ab7:	cc                   	int3   
   10ab8:	cc                   	int3   
   10ab9:	cc                   	int3   
   10aba:	cc                   	int3   
   10abb:	cc                   	int3   
   10abc:	cc                   	int3   
   10abd:	cc                   	int3   
   10abe:	cc                   	int3   
   10abf:	cc                   	int3   

0000000000010ac0 <_ZN4core3ptr46drop_in_place$LT$std..ffi..c_str..NulError$GT$17h541727c4d84aea92E>:
   10ac0:	0f ae e8             	lfence 
   10ac3:	48 89 f8             	mov    %rdi,%rax
   10ac6:	48 8b 7f 08          	mov    0x8(%rdi),%rdi
   10aca:	0f ae e8             	lfence 
   10acd:	48 85 ff             	test   %rdi,%rdi
   10ad0:	74 16                	je     10ae8 <_ZN4core3ptr46drop_in_place$LT$std..ffi..c_str..NulError$GT$17h541727c4d84aea92E+0x28>
   10ad2:	48 8b 70 10          	mov    0x10(%rax),%rsi
   10ad6:	0f ae e8             	lfence 
   10ad9:	48 85 f6             	test   %rsi,%rsi
   10adc:	74 0a                	je     10ae8 <_ZN4core3ptr46drop_in_place$LT$std..ffi..c_str..NulError$GT$17h541727c4d84aea92E+0x28>
   10ade:	ba 01 00 00 00       	mov    $0x1,%edx
   10ae3:	e9 98 e1 ff ff       	jmpq   ec80 <__rust_dealloc>
   10ae8:	58                   	pop    %rax
   10ae9:	0f ae e8             	lfence 
   10aec:	ff e0                	jmpq   *%rax
   10aee:	cc                   	int3   
   10aef:	cc                   	int3   

0000000000010af0 <_ZN4core3ptr48drop_in_place$LT$std..sys..sgx..fd..FileDesc$GT$17h05f3f3e85f7e906cE>:
   10af0:	48 83 ec 38          	sub    $0x38,%rsp
   10af4:	48 89 fe             	mov    %rdi,%rsi
   10af7:	bf 05 00 00 00       	mov    $0x5,%edi
   10afc:	31 d2                	xor    %edx,%edx
   10afe:	31 c9                	xor    %ecx,%ecx
   10b00:	45 31 c0             	xor    %r8d,%r8d
   10b03:	45 31 c9             	xor    %r9d,%r9d
   10b06:	e8 a8 e3 ff ff       	callq  eeb3 <usercall>
   10b0b:	48 85 c0             	test   %rax,%rax
   10b0e:	75 0f                	jne    10b1f <_ZN4core3ptr48drop_in_place$LT$std..sys..sgx..fd..FileDesc$GT$17h05f3f3e85f7e906cE+0x2f>
   10b10:	48 85 d2             	test   %rdx,%rdx
   10b13:	75 13                	jne    10b28 <_ZN4core3ptr48drop_in_place$LT$std..sys..sgx..fd..FileDesc$GT$17h05f3f3e85f7e906cE+0x38>
   10b15:	48 83 c4 38          	add    $0x38,%rsp
   10b19:	58                   	pop    %rax
   10b1a:	0f ae e8             	lfence 
   10b1d:	ff e0                	jmpq   *%rax
   10b1f:	48 8d 05 22 3d 02 00 	lea    0x23d22(%rip),%rax        # 34848 <_ZN9libunwind13DwarfFDECacheINS_17LocalAddressSpaceEE10_bufferEndE+0x11e0>
   10b26:	eb 07                	jmp    10b2f <_ZN4core3ptr48drop_in_place$LT$std..sys..sgx..fd..FileDesc$GT$17h05f3f3e85f7e906cE+0x3f>
   10b28:	48 8d 05 29 3d 02 00 	lea    0x23d29(%rip),%rax        # 34858 <_ZN9libunwind13DwarfFDECacheINS_17LocalAddressSpaceEE10_bufferEndE+0x11f0>
   10b2f:	48 89 44 24 08       	mov    %rax,0x8(%rsp)
   10b34:	48 c7 44 24 10 01 00 	movq   $0x1,0x10(%rsp)
   10b3b:	00 00 
   10b3d:	48 c7 44 24 18 00 00 	movq   $0x0,0x18(%rsp)
   10b44:	00 00 
   10b46:	48 8d 05 5b 44 ff ff 	lea    -0xbba5(%rip),%rax        # 4fa8 <EH_FRM_LEN+0x368>
   10b4d:	48 89 44 24 28       	mov    %rax,0x28(%rsp)
   10b52:	48 c7 44 24 30 00 00 	movq   $0x0,0x30(%rsp)
   10b59:	00 00 
   10b5b:	48 8d 7c 24 08       	lea    0x8(%rsp),%rdi
   10b60:	e8 9b a9 00 00       	callq  1b500 <_ZN3std10sys_common4util5abort17h9acf05c9cc235988E>
   10b65:	0f 0b                	ud2    
   10b67:	cc                   	int3   
   10b68:	cc                   	int3   
   10b69:	cc                   	int3   
   10b6a:	cc                   	int3   
   10b6b:	cc                   	int3   
   10b6c:	cc                   	int3   
   10b6d:	cc                   	int3   
   10b6e:	cc                   	int3   
   10b6f:	cc                   	int3   

0000000000010b70 <_ZN4core3ptr49drop_in_place$LT$std..sync..once..WaiterQueue$GT$17h8359ac53bf3a89c9E>:
   10b70:	e9 ab 9f 00 00       	jmpq   1ab20 <_ZN70_$LT$std..sync..once..WaiterQueue$u20$as$u20$core..ops..drop..Drop$GT$4drop17h15b951e3b604c62bE>
   10b75:	cc                   	int3   
   10b76:	cc                   	int3   
   10b77:	cc                   	int3   
   10b78:	cc                   	int3   
   10b79:	cc                   	int3   
   10b7a:	cc                   	int3   
   10b7b:	cc                   	int3   
   10b7c:	cc                   	int3   
   10b7d:	cc                   	int3   
   10b7e:	cc                   	int3   
   10b7f:	cc                   	int3   

0000000000010b80 <_ZN4core3ptr51drop_in_place$LT$std..sync..mpsc..sync..Blocker$GT$17hea709ec6fbc4733eE>:
   10b80:	0f ae e8             	lfence 
   10b83:	48 8b 07             	mov    (%rdi),%rax
   10b86:	0f ae e8             	lfence 
   10b89:	48 85 c0             	test   %rax,%rax
   10b8c:	74 05                	je     10b93 <_ZN4core3ptr51drop_in_place$LT$std..sync..mpsc..sync..Blocker$GT$17hea709ec6fbc4733eE+0x13>
   10b8e:	83 f8 01             	cmp    $0x1,%eax
   10b91:	75 1a                	jne    10bad <_ZN4core3ptr51drop_in_place$LT$std..sync..mpsc..sync..Blocker$GT$17hea709ec6fbc4733eE+0x2d>
   10b93:	48 8b 47 08          	mov    0x8(%rdi),%rax
   10b97:	0f ae e8             	lfence 
   10b9a:	f0 48 83 28 01       	lock subq $0x1,(%rax)
   10b9f:	0f ae e8             	lfence 
   10ba2:	75 09                	jne    10bad <_ZN4core3ptr51drop_in_place$LT$std..sync..mpsc..sync..Blocker$GT$17hea709ec6fbc4733eE+0x2d>
   10ba4:	48 83 c7 08          	add    $0x8,%rdi
   10ba8:	e9 03 24 00 00       	jmpq   12fb0 <_ZN5alloc4sync12Arc$LT$T$GT$9drop_slow17he98dc4928cc11179E>
   10bad:	58                   	pop    %rax
   10bae:	0f ae e8             	lfence 
   10bb1:	ff e0                	jmpq   *%rax
   10bb3:	cc                   	int3   
   10bb4:	cc                   	int3   
   10bb5:	cc                   	int3   
   10bb6:	cc                   	int3   
   10bb7:	cc                   	int3   
   10bb8:	cc                   	int3   
   10bb9:	cc                   	int3   
   10bba:	cc                   	int3   
   10bbb:	cc                   	int3   
   10bbc:	cc                   	int3   
   10bbd:	cc                   	int3   
   10bbe:	cc                   	int3   
   10bbf:	cc                   	int3   

0000000000010bc0 <_ZN4core3ptr55drop_in_place$LT$std..sys..sgx..abi..tls..ActiveTls$GT$17h467953514babc09eE>:
   10bc0:	55                   	push   %rbp
   10bc1:	41 57                	push   %r15
   10bc3:	41 56                	push   %r14
   10bc5:	41 55                	push   %r13
   10bc7:	41 54                	push   %r12
   10bc9:	53                   	push   %rbx
   10bca:	48 83 ec 58          	sub    $0x58,%rsp
   10bce:	48 89 7c 24 08       	mov    %rdi,0x8(%rsp)
   10bd3:	48 8d 44 24 08       	lea    0x8(%rsp),%rax
   10bd8:	48 89 44 24 10       	mov    %rax,0x10(%rsp)
   10bdd:	4c 8d 64 24 10       	lea    0x10(%rsp),%r12
   10be2:	48 8d 05 1f 4b 02 00 	lea    0x24b1f(%rip),%rax        # 35708 <_ZN16__rust_internals3std3sys3sgx3abi3tls14TLS_KEY_IN_USEE>
   10be9:	4c 8d 68 10          	lea    0x10(%rax),%r13
   10bed:	48 8d 5c 24 18       	lea    0x18(%rsp),%rbx
   10bf2:	48 8d 2d 1f 4b 02 00 	lea    0x24b1f(%rip),%rbp        # 35718 <_ZN16__rust_internals3std3sys3sgx3abi3tls14TLS_DESTRUCTORE>
   10bf9:	eb 0f                	jmp    10c0a <_ZN4core3ptr55drop_in_place$LT$std..sys..sgx..abi..tls..ActiveTls$GT$17h467953514babc09eE+0x4a>
   10bfb:	0f 1f 44 00 00       	nopl   0x0(%rax,%rax,1)
   10c00:	41 f6 c6 01          	test   $0x1,%r14b
   10c04:	0f 84 c7 00 00 00    	je     10cd1 <_ZN4core3ptr55drop_in_place$LT$std..sys..sgx..abi..tls..ActiveTls$GT$17h467953514babc09eE+0x111>
   10c0a:	48 8d 05 f7 4a 02 00 	lea    0x24af7(%rip),%rax        # 35708 <_ZN16__rust_internals3std3sys3sgx3abi3tls14TLS_KEY_IN_USEE>
   10c11:	48 89 44 24 18       	mov    %rax,0x18(%rsp)
   10c16:	4c 89 6c 24 20       	mov    %r13,0x20(%rsp)
   10c1b:	48 8d 44 24 28       	lea    0x28(%rsp),%rax
   10c20:	0f 57 c0             	xorps  %xmm0,%xmm0
   10c23:	0f 11 00             	movups %xmm0,(%rax)
   10c26:	48 c7 44 24 48 00 00 	movq   $0x0,0x48(%rsp)
   10c2d:	00 00 
   10c2f:	4c 89 64 24 50       	mov    %r12,0x50(%rsp)
   10c34:	45 31 f6             	xor    %r14d,%r14d
   10c37:	4d 89 e7             	mov    %r12,%r15
   10c3a:	eb 14                	jmp    10c50 <_ZN4core3ptr55drop_in_place$LT$std..sys..sgx..abi..tls..ActiveTls$GT$17h467953514babc09eE+0x90>
   10c3c:	4c 8b 7c 24 50       	mov    0x50(%rsp),%r15
   10c41:	66 2e 0f 1f 84 00 00 	nopw   %cs:0x0(%rax,%rax,1)
   10c48:	00 00 00 
   10c4b:	0f 1f 44 00 00       	nopl   0x0(%rax,%rax,1)
   10c50:	48 89 df             	mov    %rbx,%rdi
   10c53:	e8 58 d6 00 00       	callq  1e2b0 <_ZN111_$LT$std..sys..sgx..abi..tls..sync_bitset..SyncBitsetIter$u20$as$u20$core..iter..traits..iterator..Iterator$GT$4next17h0b61e32eb2a90d31E>
   10c58:	48 83 f8 01          	cmp    $0x1,%rax
   10c5c:	75 33                	jne    10c91 <_ZN4core3ptr55drop_in_place$LT$std..sys..sgx..abi..tls..ActiveTls$GT$17h467953514babc09eE+0xd1>
   10c5e:	48 83 fa 7f          	cmp    $0x7f,%rdx
   10c62:	77 54                	ja     10cb8 <_ZN4core3ptr55drop_in_place$LT$std..sys..sgx..abi..tls..ActiveTls$GT$17h467953514babc09eE+0xf8>
   10c64:	4c 8b 5c d5 00       	mov    0x0(%rbp,%rdx,8),%r11
   10c69:	0f ae e8             	lfence 
   10c6c:	4d 85 db             	test   %r11,%r11
   10c6f:	74 df                	je     10c50 <_ZN4core3ptr55drop_in_place$LT$std..sys..sgx..abi..tls..ActiveTls$GT$17h467953514babc09eE+0x90>
   10c71:	49 8b 07             	mov    (%r15),%rax
   10c74:	0f ae e8             	lfence 
   10c77:	48 8b 00             	mov    (%rax),%rax
   10c7a:	0f ae e8             	lfence 
   10c7d:	48 c1 e2 03          	shl    $0x3,%rdx
   10c81:	48 03 10             	add    (%rax),%rdx
   10c84:	0f ae e8             	lfence 
   10c87:	48 85 d2             	test   %rdx,%rdx
   10c8a:	75 10                	jne    10c9c <_ZN4core3ptr55drop_in_place$LT$std..sys..sgx..abi..tls..ActiveTls$GT$17h467953514babc09eE+0xdc>
   10c8c:	e9 6f ff ff ff       	jmpq   10c00 <_ZN4core3ptr55drop_in_place$LT$std..sys..sgx..abi..tls..ActiveTls$GT$17h467953514babc09eE+0x40>
   10c91:	31 d2                	xor    %edx,%edx
   10c93:	48 85 d2             	test   %rdx,%rdx
   10c96:	0f 84 64 ff ff ff    	je     10c00 <_ZN4core3ptr55drop_in_place$LT$std..sys..sgx..abi..tls..ActiveTls$GT$17h467953514babc09eE+0x40>
   10c9c:	48 8b 3a             	mov    (%rdx),%rdi
   10c9f:	0f ae e8             	lfence 
   10ca2:	48 c7 02 00 00 00 00 	movq   $0x0,(%rdx)
   10ca9:	48 85 ff             	test   %rdi,%rdi
   10cac:	74 8e                	je     10c3c <_ZN4core3ptr55drop_in_place$LT$std..sys..sgx..abi..tls..ActiveTls$GT$17h467953514babc09eE+0x7c>
   10cae:	e8 ed dc ff ff       	callq  e9a0 <__llvm_lvi_thunk_r11>
   10cb3:	41 b6 01             	mov    $0x1,%r14b
   10cb6:	eb 84                	jmp    10c3c <_ZN4core3ptr55drop_in_place$LT$std..sys..sgx..abi..tls..ActiveTls$GT$17h467953514babc09eE+0x7c>
   10cb8:	48 8d 05 71 3a 02 00 	lea    0x23a71(%rip),%rax        # 34730 <_ZN9libunwind13DwarfFDECacheINS_17LocalAddressSpaceEE10_bufferEndE+0x10c8>
   10cbf:	be 80 00 00 00       	mov    $0x80,%esi
   10cc4:	48 89 d7             	mov    %rdx,%rdi
   10cc7:	48 89 c2             	mov    %rax,%rdx
   10cca:	e8 01 c8 01 00       	callq  2d4d0 <_ZN4core9panicking18panic_bounds_check17hbfdf26c288905562E>
   10ccf:	0f 0b                	ud2    
   10cd1:	48 83 c4 58          	add    $0x58,%rsp
   10cd5:	5b                   	pop    %rbx
   10cd6:	41 5c                	pop    %r12
   10cd8:	41 5d                	pop    %r13
   10cda:	41 5e                	pop    %r14
   10cdc:	41 5f                	pop    %r15
   10cde:	5d                   	pop    %rbp
   10cdf:	58                   	pop    %rax
   10ce0:	0f ae e8             	lfence 
   10ce3:	ff e0                	jmpq   *%rax
   10ce5:	cc                   	int3   
   10ce6:	cc                   	int3   
   10ce7:	cc                   	int3   
   10ce8:	cc                   	int3   
   10ce9:	cc                   	int3   
   10cea:	cc                   	int3   
   10ceb:	cc                   	int3   
   10cec:	cc                   	int3   
   10ced:	cc                   	int3   
   10cee:	cc                   	int3   
   10cef:	cc                   	int3   

0000000000010cf0 <_ZN4core3ptr57drop_in_place$LT$std..sync..mpsc..blocking..WaitToken$GT$17hf045340107c2c1daE>:
   10cf0:	0f ae e8             	lfence 
   10cf3:	48 8b 07             	mov    (%rdi),%rax
   10cf6:	0f ae e8             	lfence 
   10cf9:	f0 48 83 28 01       	lock subq $0x1,(%rax)
   10cfe:	0f ae e8             	lfence 
   10d01:	75 05                	jne    10d08 <_ZN4core3ptr57drop_in_place$LT$std..sync..mpsc..blocking..WaitToken$GT$17hf045340107c2c1daE+0x18>
   10d03:	e9 a8 22 00 00       	jmpq   12fb0 <_ZN5alloc4sync12Arc$LT$T$GT$9drop_slow17he98dc4928cc11179E>
   10d08:	58                   	pop    %rax
   10d09:	0f ae e8             	lfence 
   10d0c:	ff e0                	jmpq   *%rax
   10d0e:	cc                   	int3   
   10d0f:	cc                   	int3   

0000000000010d10 <_ZN4core3ptr60drop_in_place$LT$std..sync..mpsc..Sender$LT$$LP$$RP$$GT$$GT$17haf488b69e62e3884E>:
   10d10:	41 56                	push   %r14
   10d12:	53                   	push   %rbx
   10d13:	48 83 ec 48          	sub    $0x48,%rsp
   10d17:	0f ae e8             	lfence 
   10d1a:	48 89 fb             	mov    %rdi,%rbx
   10d1d:	48 8b 07             	mov    (%rdi),%rax
   10d20:	0f ae e8             	lfence 
   10d23:	48 83 f8 01          	cmp    $0x1,%rax
   10d27:	7f 55                	jg     10d7e <_ZN4core3ptr60drop_in_place$LT$std..sync..mpsc..Sender$LT$$LP$$RP$$GT$$GT$17haf488b69e62e3884E+0x6e>
   10d29:	48 85 c0             	test   %rax,%rax
   10d2c:	0f 85 e2 00 00 00    	jne    10e14 <_ZN4core3ptr60drop_in_place$LT$std..sync..mpsc..Sender$LT$$LP$$RP$$GT$$GT$17haf488b69e62e3884E+0x104>
   10d32:	48 8b 43 08          	mov    0x8(%rbx),%rax
   10d36:	0f ae e8             	lfence 
   10d39:	b9 02 00 00 00       	mov    $0x2,%ecx
   10d3e:	48 87 48 10          	xchg   %rcx,0x10(%rax)
   10d42:	0f ae e8             	lfence 
   10d45:	48 83 f9 03          	cmp    $0x3,%rcx
   10d49:	0f 82 e1 01 00 00    	jb     10f30 <_ZN4core3ptr60drop_in_place$LT$std..sync..mpsc..Sender$LT$$LP$$RP$$GT$$GT$17haf488b69e62e3884E+0x220>
   10d4f:	48 89 0c 24          	mov    %rcx,(%rsp)
   10d53:	b2 01                	mov    $0x1,%dl
   10d55:	31 c0                	xor    %eax,%eax
   10d57:	f0 0f b0 51 18       	lock cmpxchg %dl,0x18(%rcx)
   10d5c:	0f ae e8             	lfence 
   10d5f:	0f 85 85 01 00 00    	jne    10eea <_ZN4core3ptr60drop_in_place$LT$std..sync..mpsc..Sender$LT$$LP$$RP$$GT$$GT$17haf488b69e62e3884E+0x1da>
   10d65:	4c 8b 34 24          	mov    (%rsp),%r14
   10d69:	0f ae e8             	lfence 
   10d6c:	49 8b 7e 10          	mov    0x10(%r14),%rdi
   10d70:	48 83 c7 28          	add    $0x28,%rdi
   10d74:	e8 37 d2 00 00       	callq  1dfb0 <_ZN3std10sys_common13thread_parker7generic6Parker6unpark17hae1f12f49c6a553bE>
   10d79:	e9 73 01 00 00       	jmpq   10ef1 <_ZN4core3ptr60drop_in_place$LT$std..sync..mpsc..Sender$LT$$LP$$RP$$GT$$GT$17haf488b69e62e3884E+0x1e1>
   10d7e:	83 f8 02             	cmp    $0x2,%eax
   10d81:	0f 85 5c 02 00 00    	jne    10fe3 <_ZN4core3ptr60drop_in_place$LT$std..sync..mpsc..Sender$LT$$LP$$RP$$GT$$GT$17haf488b69e62e3884E+0x2d3>
   10d87:	48 8b 43 08          	mov    0x8(%rbx),%rax
   10d8b:	0f ae e8             	lfence 
   10d8e:	48 c7 c1 ff ff ff ff 	mov    $0xffffffffffffffff,%rcx
   10d95:	f0 48 0f c1 48 38    	lock xadd %rcx,0x38(%rax)
   10d9b:	0f ae e8             	lfence 
   10d9e:	48 83 f9 01          	cmp    $0x1,%rcx
   10da2:	0f 84 e1 00 00 00    	je     10e89 <_ZN4core3ptr60drop_in_place$LT$std..sync..mpsc..Sender$LT$$LP$$RP$$GT$$GT$17haf488b69e62e3884E+0x179>
   10da8:	48 85 c9             	test   %rcx,%rcx
   10dab:	0f 85 7f 01 00 00    	jne    10f30 <_ZN4core3ptr60drop_in_place$LT$std..sync..mpsc..Sender$LT$$LP$$RP$$GT$$GT$17haf488b69e62e3884E+0x220>
   10db1:	48 c7 44 24 30 00 00 	movq   $0x0,0x30(%rsp)
   10db8:	00 00 
   10dba:	48 8d 44 24 30       	lea    0x30(%rsp),%rax
   10dbf:	48 89 44 24 38       	mov    %rax,0x38(%rsp)
   10dc4:	48 8d 05 25 10 02 00 	lea    0x21025(%rip),%rax        # 31df0 <_ZN4core3fmt3num3imp52_$LT$impl$u20$core..fmt..Display$u20$for$u20$u64$GT$3fmt17h1db720bd8483b12cE>
   10dcb:	48 89 44 24 40       	mov    %rax,0x40(%rsp)
   10dd0:	48 8d 05 c9 2f 02 00 	lea    0x22fc9(%rip),%rax        # 33da0 <_ZN9libunwind13DwarfFDECacheINS_17LocalAddressSpaceEE10_bufferEndE+0x738>
   10dd7:	48 89 04 24          	mov    %rax,(%rsp)
   10ddb:	48 c7 44 24 08 01 00 	movq   $0x1,0x8(%rsp)
   10de2:	00 00 
   10de4:	48 c7 44 24 10 00 00 	movq   $0x0,0x10(%rsp)
   10deb:	00 00 
   10ded:	48 8d 44 24 38       	lea    0x38(%rsp),%rax
   10df2:	48 89 44 24 20       	mov    %rax,0x20(%rsp)
   10df7:	48 c7 44 24 28 01 00 	movq   $0x1,0x28(%rsp)
   10dfe:	00 00 
   10e00:	48 8d 35 a9 2f 02 00 	lea    0x22fa9(%rip),%rsi        # 33db0 <_ZN9libunwind13DwarfFDECacheINS_17LocalAddressSpaceEE10_bufferEndE+0x748>
   10e07:	48 89 e7             	mov    %rsp,%rdi
   10e0a:	e8 11 b8 00 00       	callq  1c620 <_ZN3std9panicking15begin_panic_fmt17haab25530bcb0061eE>
   10e0f:	e9 35 02 00 00       	jmpq   11049 <_ZN4core3ptr60drop_in_place$LT$std..sync..mpsc..Sender$LT$$LP$$RP$$GT$$GT$17haf488b69e62e3884E+0x339>
   10e14:	48 8b 43 08          	mov    0x8(%rbx),%rax
   10e18:	0f ae e8             	lfence 
   10e1b:	48 ba 00 00 00 00 00 	movabs $0x8000000000000000,%rdx
   10e22:	00 00 80 
   10e25:	48 89 d1             	mov    %rdx,%rcx
   10e28:	48 87 88 98 00 00 00 	xchg   %rcx,0x98(%rax)
   10e2f:	0f ae e8             	lfence 
   10e32:	48 39 d1             	cmp    %rdx,%rcx
   10e35:	0f 84 f5 00 00 00    	je     10f30 <_ZN4core3ptr60drop_in_place$LT$std..sync..mpsc..Sender$LT$$LP$$RP$$GT$$GT$17haf488b69e62e3884E+0x220>
   10e3b:	48 83 f9 ff          	cmp    $0xffffffffffffffff,%rcx
   10e3f:	0f 85 c0 00 00 00    	jne    10f05 <_ZN4core3ptr60drop_in_place$LT$std..sync..mpsc..Sender$LT$$LP$$RP$$GT$$GT$17haf488b69e62e3884E+0x1f5>
   10e45:	48 8b 88 a0 00 00 00 	mov    0xa0(%rax),%rcx
   10e4c:	0f ae e8             	lfence 
   10e4f:	31 d2                	xor    %edx,%edx
   10e51:	48 87 90 a0 00 00 00 	xchg   %rdx,0xa0(%rax)
   10e58:	48 85 c9             	test   %rcx,%rcx
   10e5b:	0f 84 9c 01 00 00    	je     10ffd <_ZN4core3ptr60drop_in_place$LT$std..sync..mpsc..Sender$LT$$LP$$RP$$GT$$GT$17haf488b69e62e3884E+0x2ed>
   10e61:	48 89 0c 24          	mov    %rcx,(%rsp)
   10e65:	b2 01                	mov    $0x1,%dl
   10e67:	31 c0                	xor    %eax,%eax
   10e69:	f0 0f b0 51 18       	lock cmpxchg %dl,0x18(%rcx)
   10e6e:	0f ae e8             	lfence 
   10e71:	75 77                	jne    10eea <_ZN4core3ptr60drop_in_place$LT$std..sync..mpsc..Sender$LT$$LP$$RP$$GT$$GT$17haf488b69e62e3884E+0x1da>
   10e73:	4c 8b 34 24          	mov    (%rsp),%r14
   10e77:	0f ae e8             	lfence 
   10e7a:	49 8b 7e 10          	mov    0x10(%r14),%rdi
   10e7e:	48 83 c7 28          	add    $0x28,%rdi
   10e82:	e8 29 d1 00 00       	callq  1dfb0 <_ZN3std10sys_common13thread_parker7generic6Parker6unpark17hae1f12f49c6a553bE>
   10e87:	eb 68                	jmp    10ef1 <_ZN4core3ptr60drop_in_place$LT$std..sync..mpsc..Sender$LT$$LP$$RP$$GT$$GT$17haf488b69e62e3884E+0x1e1>
   10e89:	48 ba 00 00 00 00 00 	movabs $0x8000000000000000,%rdx
   10e90:	00 00 80 
   10e93:	48 89 d1             	mov    %rdx,%rcx
   10e96:	48 87 48 20          	xchg   %rcx,0x20(%rax)
   10e9a:	0f ae e8             	lfence 
   10e9d:	48 39 d1             	cmp    %rdx,%rcx
   10ea0:	0f 84 8a 00 00 00    	je     10f30 <_ZN4core3ptr60drop_in_place$LT$std..sync..mpsc..Sender$LT$$LP$$RP$$GT$$GT$17haf488b69e62e3884E+0x220>
   10ea6:	48 83 f9 ff          	cmp    $0xffffffffffffffff,%rcx
   10eaa:	75 7b                	jne    10f27 <_ZN4core3ptr60drop_in_place$LT$std..sync..mpsc..Sender$LT$$LP$$RP$$GT$$GT$17haf488b69e62e3884E+0x217>
   10eac:	48 8b 48 30          	mov    0x30(%rax),%rcx
   10eb0:	0f ae e8             	lfence 
   10eb3:	31 d2                	xor    %edx,%edx
   10eb5:	48 87 50 30          	xchg   %rdx,0x30(%rax)
   10eb9:	48 85 c9             	test   %rcx,%rcx
   10ebc:	0f 84 55 01 00 00    	je     11017 <_ZN4core3ptr60drop_in_place$LT$std..sync..mpsc..Sender$LT$$LP$$RP$$GT$$GT$17haf488b69e62e3884E+0x307>
   10ec2:	48 89 0c 24          	mov    %rcx,(%rsp)
   10ec6:	b2 01                	mov    $0x1,%dl
   10ec8:	31 c0                	xor    %eax,%eax
   10eca:	f0 0f b0 51 18       	lock cmpxchg %dl,0x18(%rcx)
   10ecf:	0f ae e8             	lfence 
   10ed2:	75 16                	jne    10eea <_ZN4core3ptr60drop_in_place$LT$std..sync..mpsc..Sender$LT$$LP$$RP$$GT$$GT$17haf488b69e62e3884E+0x1da>
   10ed4:	4c 8b 34 24          	mov    (%rsp),%r14
   10ed8:	0f ae e8             	lfence 
   10edb:	49 8b 7e 10          	mov    0x10(%r14),%rdi
   10edf:	48 83 c7 28          	add    $0x28,%rdi
   10ee3:	e8 c8 d0 00 00       	callq  1dfb0 <_ZN3std10sys_common13thread_parker7generic6Parker6unpark17hae1f12f49c6a553bE>
   10ee8:	eb 07                	jmp    10ef1 <_ZN4core3ptr60drop_in_place$LT$std..sync..mpsc..Sender$LT$$LP$$RP$$GT$$GT$17haf488b69e62e3884E+0x1e1>
   10eea:	4c 8b 34 24          	mov    (%rsp),%r14
   10eee:	0f ae e8             	lfence 
   10ef1:	f0 49 83 2e 01       	lock subq $0x1,(%r14)
   10ef6:	0f ae e8             	lfence 
   10ef9:	75 35                	jne    10f30 <_ZN4core3ptr60drop_in_place$LT$std..sync..mpsc..Sender$LT$$LP$$RP$$GT$$GT$17haf488b69e62e3884E+0x220>
   10efb:	48 89 e7             	mov    %rsp,%rdi
   10efe:	e8 ad 20 00 00       	callq  12fb0 <_ZN5alloc4sync12Arc$LT$T$GT$9drop_slow17he98dc4928cc11179E>
   10f03:	eb 2b                	jmp    10f30 <_ZN4core3ptr60drop_in_place$LT$std..sync..mpsc..Sender$LT$$LP$$RP$$GT$$GT$17haf488b69e62e3884E+0x220>
   10f05:	48 85 c9             	test   %rcx,%rcx
   10f08:	79 26                	jns    10f30 <_ZN4core3ptr60drop_in_place$LT$std..sync..mpsc..Sender$LT$$LP$$RP$$GT$$GT$17haf488b69e62e3884E+0x220>
   10f0a:	48 8d 3d 12 48 ff ff 	lea    -0xb7ee(%rip),%rdi        # 5723 <EH_FRM_LEN+0xae3>
   10f11:	48 8d 15 a0 2f 02 00 	lea    0x22fa0(%rip),%rdx        # 33eb8 <_ZN9libunwind13DwarfFDECacheINS_17LocalAddressSpaceEE10_bufferEndE+0x850>
   10f18:	be 18 00 00 00       	mov    $0x18,%esi
   10f1d:	e8 5e c5 01 00       	callq  2d480 <_ZN4core9panicking5panic17h5ae2157404716702E>
   10f22:	e9 22 01 00 00       	jmpq   11049 <_ZN4core3ptr60drop_in_place$LT$std..sync..mpsc..Sender$LT$$LP$$RP$$GT$$GT$17haf488b69e62e3884E+0x339>
   10f27:	48 85 c9             	test   %rcx,%rcx
   10f2a:	0f 88 01 01 00 00    	js     11031 <_ZN4core3ptr60drop_in_place$LT$std..sync..mpsc..Sender$LT$$LP$$RP$$GT$$GT$17haf488b69e62e3884E+0x321>
   10f30:	48 8b 03             	mov    (%rbx),%rax
   10f33:	0f ae e8             	lfence 
   10f36:	48 83 f8 02          	cmp    $0x2,%rax
   10f3a:	74 52                	je     10f8e <_ZN4core3ptr60drop_in_place$LT$std..sync..mpsc..Sender$LT$$LP$$RP$$GT$$GT$17haf488b69e62e3884E+0x27e>
   10f3c:	83 f8 01             	cmp    $0x1,%eax
   10f3f:	74 29                	je     10f6a <_ZN4core3ptr60drop_in_place$LT$std..sync..mpsc..Sender$LT$$LP$$RP$$GT$$GT$17haf488b69e62e3884E+0x25a>
   10f41:	48 85 c0             	test   %rax,%rax
   10f44:	75 6c                	jne    10fb2 <_ZN4core3ptr60drop_in_place$LT$std..sync..mpsc..Sender$LT$$LP$$RP$$GT$$GT$17haf488b69e62e3884E+0x2a2>
   10f46:	48 8b 43 08          	mov    0x8(%rbx),%rax
   10f4a:	0f ae e8             	lfence 
   10f4d:	f0 48 83 28 01       	lock subq $0x1,(%rax)
   10f52:	0f ae e8             	lfence 
   10f55:	75 7f                	jne    10fd6 <_ZN4core3ptr60drop_in_place$LT$std..sync..mpsc..Sender$LT$$LP$$RP$$GT$$GT$17haf488b69e62e3884E+0x2c6>
   10f57:	48 83 c3 08          	add    $0x8,%rbx
   10f5b:	48 89 df             	mov    %rbx,%rdi
   10f5e:	48 83 c4 48          	add    $0x48,%rsp
   10f62:	5b                   	pop    %rbx
   10f63:	41 5e                	pop    %r14
   10f65:	e9 d6 18 00 00       	jmpq   12840 <_ZN5alloc4sync12Arc$LT$T$GT$9drop_slow17h33244e520422c953E>
   10f6a:	48 8b 43 08          	mov    0x8(%rbx),%rax
   10f6e:	0f ae e8             	lfence 
   10f71:	f0 48 83 28 01       	lock subq $0x1,(%rax)
   10f76:	0f ae e8             	lfence 
   10f79:	75 5b                	jne    10fd6 <_ZN4core3ptr60drop_in_place$LT$std..sync..mpsc..Sender$LT$$LP$$RP$$GT$$GT$17haf488b69e62e3884E+0x2c6>
   10f7b:	48 83 c3 08          	add    $0x8,%rbx
   10f7f:	48 89 df             	mov    %rbx,%rdi
   10f82:	48 83 c4 48          	add    $0x48,%rsp
   10f86:	5b                   	pop    %rbx
   10f87:	41 5e                	pop    %r14
   10f89:	e9 c2 1b 00 00       	jmpq   12b50 <_ZN5alloc4sync12Arc$LT$T$GT$9drop_slow17h9ac76426e5e1f36cE>
   10f8e:	48 8b 43 08          	mov    0x8(%rbx),%rax
   10f92:	0f ae e8             	lfence 
   10f95:	f0 48 83 28 01       	lock subq $0x1,(%rax)
   10f9a:	0f ae e8             	lfence 
   10f9d:	75 37                	jne    10fd6 <_ZN4core3ptr60drop_in_place$LT$std..sync..mpsc..Sender$LT$$LP$$RP$$GT$$GT$17haf488b69e62e3884E+0x2c6>
   10f9f:	48 83 c3 08          	add    $0x8,%rbx
   10fa3:	48 89 df             	mov    %rbx,%rdi
   10fa6:	48 83 c4 48          	add    $0x48,%rsp
   10faa:	5b                   	pop    %rbx
   10fab:	41 5e                	pop    %r14
   10fad:	e9 0e 1a 00 00       	jmpq   129c0 <_ZN5alloc4sync12Arc$LT$T$GT$9drop_slow17h7843c6f1e66c2938E>
   10fb2:	48 8b 43 08          	mov    0x8(%rbx),%rax
   10fb6:	0f ae e8             	lfence 
   10fb9:	f0 48 83 28 01       	lock subq $0x1,(%rax)
   10fbe:	0f ae e8             	lfence 
   10fc1:	75 13                	jne    10fd6 <_ZN4core3ptr60drop_in_place$LT$std..sync..mpsc..Sender$LT$$LP$$RP$$GT$$GT$17haf488b69e62e3884E+0x2c6>
   10fc3:	48 83 c3 08          	add    $0x8,%rbx
   10fc7:	48 89 df             	mov    %rbx,%rdi
   10fca:	48 83 c4 48          	add    $0x48,%rsp
   10fce:	5b                   	pop    %rbx
   10fcf:	41 5e                	pop    %r14
   10fd1:	e9 7a 1d 00 00       	jmpq   12d50 <_ZN5alloc4sync12Arc$LT$T$GT$9drop_slow17ha547a3409d4a9fdaE>
   10fd6:	48 83 c4 48          	add    $0x48,%rsp
   10fda:	5b                   	pop    %rbx
   10fdb:	41 5e                	pop    %r14
   10fdd:	58                   	pop    %rax
   10fde:	0f ae e8             	lfence 
   10fe1:	ff e0                	jmpq   *%rax
   10fe3:	48 8d 3d 7c 41 ff ff 	lea    -0xbe84(%rip),%rdi        # 5166 <EH_FRM_LEN+0x526>
   10fea:	48 8d 15 ff 2f 02 00 	lea    0x22fff(%rip),%rdx        # 33ff0 <_ZN9libunwind13DwarfFDECacheINS_17LocalAddressSpaceEE10_bufferEndE+0x988>
   10ff1:	be 28 00 00 00       	mov    $0x28,%esi
   10ff6:	e8 85 c4 01 00       	callq  2d480 <_ZN4core9panicking5panic17h5ae2157404716702E>
   10ffb:	eb 4c                	jmp    11049 <_ZN4core3ptr60drop_in_place$LT$std..sync..mpsc..Sender$LT$$LP$$RP$$GT$$GT$17haf488b69e62e3884E+0x339>
   10ffd:	48 8d 3d 53 47 ff ff 	lea    -0xb8ad(%rip),%rdi        # 5757 <EH_FRM_LEN+0xb17>
   11004:	48 8d 15 95 2e 02 00 	lea    0x22e95(%rip),%rdx        # 33ea0 <_ZN9libunwind13DwarfFDECacheINS_17LocalAddressSpaceEE10_bufferEndE+0x838>
   1100b:	be 1a 00 00 00       	mov    $0x1a,%esi
   11010:	e8 6b c4 01 00       	callq  2d480 <_ZN4core9panicking5panic17h5ae2157404716702E>
   11015:	eb 32                	jmp    11049 <_ZN4core3ptr60drop_in_place$LT$std..sync..mpsc..Sender$LT$$LP$$RP$$GT$$GT$17haf488b69e62e3884E+0x339>
   11017:	48 8d 3d 39 47 ff ff 	lea    -0xb8c7(%rip),%rdi        # 5757 <EH_FRM_LEN+0xb17>
   1101e:	48 8d 15 bb 2d 02 00 	lea    0x22dbb(%rip),%rdx        # 33de0 <_ZN9libunwind13DwarfFDECacheINS_17LocalAddressSpaceEE10_bufferEndE+0x778>
   11025:	be 1a 00 00 00       	mov    $0x1a,%esi
   1102a:	e8 51 c4 01 00       	callq  2d480 <_ZN4core9panicking5panic17h5ae2157404716702E>
   1102f:	eb 18                	jmp    11049 <_ZN4core3ptr60drop_in_place$LT$std..sync..mpsc..Sender$LT$$LP$$RP$$GT$$GT$17haf488b69e62e3884E+0x339>
   11031:	48 8d 3d eb 46 ff ff 	lea    -0xb915(%rip),%rdi        # 5723 <EH_FRM_LEN+0xae3>
   11038:	48 8d 15 89 2d 02 00 	lea    0x22d89(%rip),%rdx        # 33dc8 <_ZN9libunwind13DwarfFDECacheINS_17LocalAddressSpaceEE10_bufferEndE+0x760>
   1103f:	be 18 00 00 00       	mov    $0x18,%esi
   11044:	e8 37 c4 01 00       	callq  2d480 <_ZN4core9panicking5panic17h5ae2157404716702E>
   11049:	0f 0b                	ud2    
   1104b:	eb 02                	jmp    1104f <_ZN4core3ptr60drop_in_place$LT$std..sync..mpsc..Sender$LT$$LP$$RP$$GT$$GT$17haf488b69e62e3884E+0x33f>
   1104d:	eb 00                	jmp    1104f <_ZN4core3ptr60drop_in_place$LT$std..sync..mpsc..Sender$LT$$LP$$RP$$GT$$GT$17haf488b69e62e3884E+0x33f>
   1104f:	49 89 c6             	mov    %rax,%r14
   11052:	48 89 e7             	mov    %rsp,%rdi
   11055:	e8 96 fc ff ff       	callq  10cf0 <_ZN4core3ptr57drop_in_place$LT$std..sync..mpsc..blocking..WaitToken$GT$17hf045340107c2c1daE>
   1105a:	eb 03                	jmp    1105f <_ZN4core3ptr60drop_in_place$LT$std..sync..mpsc..Sender$LT$$LP$$RP$$GT$$GT$17haf488b69e62e3884E+0x34f>
   1105c:	49 89 c6             	mov    %rax,%r14
   1105f:	48 89 df             	mov    %rbx,%rdi
   11062:	e8 89 08 00 00       	callq  118f0 <_ZN4core3ptr90drop_in_place$LT$core..cell..UnsafeCell$LT$std..sync..mpsc..Flavor$LT$$LP$$RP$$GT$$GT$$GT$17hec50c233472dcb45E>
   11067:	4c 89 f7             	mov    %r14,%rdi
   1106a:	e8 91 6b 01 00       	callq  27c00 <_Unwind_Resume>
   1106f:	0f 0b                	ud2    
   11071:	cc                   	int3   
   11072:	cc                   	int3   
   11073:	cc                   	int3   
   11074:	cc                   	int3   
   11075:	cc                   	int3   
   11076:	cc                   	int3   
   11077:	cc                   	int3   
   11078:	cc                   	int3   
   11079:	cc                   	int3   
   1107a:	cc                   	int3   
   1107b:	cc                   	int3   
   1107c:	cc                   	int3   
   1107d:	cc                   	int3   
   1107e:	cc                   	int3   
   1107f:	cc                   	int3   

0000000000011080 <_ZN4core3ptr60drop_in_place$LT$std..sync..mutex..Mutex$LT$$LP$$RP$$GT$$GT$17h606ae5489e125d4dE>:
   11080:	0f ae e8             	lfence 
   11083:	48 8b 3f             	mov    (%rdi),%rdi
   11086:	be 48 00 00 00       	mov    $0x48,%esi
   1108b:	ba 08 00 00 00       	mov    $0x8,%edx
   11090:	e9 eb db ff ff       	jmpq   ec80 <__rust_dealloc>
   11095:	cc                   	int3   
   11096:	cc                   	int3   
   11097:	cc                   	int3   
   11098:	cc                   	int3   
   11099:	cc                   	int3   
   1109a:	cc                   	int3   
   1109b:	cc                   	int3   
   1109c:	cc                   	int3   
   1109d:	cc                   	int3   
   1109e:	cc                   	int3   
   1109f:	cc                   	int3   

00000000000110a0 <_ZN4core3ptr60drop_in_place$LT$std..sys..sgx..thread..task_queue..Task$GT$17h35e94d0c73295fe4E>:
   110a0:	41 56                	push   %r14
   110a2:	53                   	push   %rbx
   110a3:	50                   	push   %rax
   110a4:	0f ae e8             	lfence 
   110a7:	48 89 fb             	mov    %rdi,%rbx
   110aa:	48 8b 3f             	mov    (%rdi),%rdi
   110ad:	48 8b 43 08          	mov    0x8(%rbx),%rax
   110b1:	0f ae e8             	lfence 
   110b4:	4c 8b 18             	mov    (%rax),%r11
   110b7:	e8 e4 d8 ff ff       	callq  e9a0 <__llvm_lvi_thunk_r11>
   110bc:	48 8b 43 08          	mov    0x8(%rbx),%rax
   110c0:	0f ae e8             	lfence 
   110c3:	48 8b 70 08          	mov    0x8(%rax),%rsi
   110c7:	0f ae e8             	lfence 
   110ca:	48 85 f6             	test   %rsi,%rsi
   110cd:	74 0c                	je     110db <_ZN4core3ptr60drop_in_place$LT$std..sys..sgx..thread..task_queue..Task$GT$17h35e94d0c73295fe4E+0x3b>
   110cf:	48 8b 3b             	mov    (%rbx),%rdi
   110d2:	48 8b 50 10          	mov    0x10(%rax),%rdx
   110d6:	e8 a5 db ff ff       	callq  ec80 <__rust_dealloc>
   110db:	48 83 c3 10          	add    $0x10,%rbx
   110df:	48 89 df             	mov    %rbx,%rdi
   110e2:	48 83 c4 08          	add    $0x8,%rsp
   110e6:	5b                   	pop    %rbx
   110e7:	41 5e                	pop    %r14
   110e9:	e9 22 fc ff ff       	jmpq   10d10 <_ZN4core3ptr60drop_in_place$LT$std..sync..mpsc..Sender$LT$$LP$$RP$$GT$$GT$17haf488b69e62e3884E>
   110ee:	49 89 c6             	mov    %rax,%r14
   110f1:	48 8b 3b             	mov    (%rbx),%rdi
   110f4:	48 8b 73 08          	mov    0x8(%rbx),%rsi
   110f8:	e8 33 1f 00 00       	callq  13030 <_ZN5alloc5alloc8box_free17h5b701317a99e898bE>
   110fd:	48 83 c3 10          	add    $0x10,%rbx
   11101:	48 89 df             	mov    %rbx,%rdi
   11104:	e8 07 fc ff ff       	callq  10d10 <_ZN4core3ptr60drop_in_place$LT$std..sync..mpsc..Sender$LT$$LP$$RP$$GT$$GT$17haf488b69e62e3884E>
   11109:	4c 89 f7             	mov    %r14,%rdi
   1110c:	e8 ef 6a 01 00       	callq  27c00 <_Unwind_Resume>
   11111:	0f 0b                	ud2    
   11113:	cc                   	int3   
   11114:	cc                   	int3   
   11115:	cc                   	int3   
   11116:	cc                   	int3   
   11117:	cc                   	int3   
   11118:	cc                   	int3   
   11119:	cc                   	int3   
   1111a:	cc                   	int3   
   1111b:	cc                   	int3   
   1111c:	cc                   	int3   
   1111d:	cc                   	int3   
   1111e:	cc                   	int3   
   1111f:	cc                   	int3   

0000000000011120 <_ZN4core3ptr61drop_in_place$LT$std..sys_common..mutex..StaticMutexGuard$GT$17he0af9d330142f884E>:
   11120:	53                   	push   %rbx
   11121:	48 83 ec 40          	sub    $0x40,%rsp
   11125:	0f ae e8             	lfence 
   11128:	48 8b 0f             	mov    (%rdi),%rcx
   1112b:	0f ae e8             	lfence 
   1112e:	b2 01                	mov    $0x1,%dl
   11130:	31 c0                	xor    %eax,%eax
   11132:	f0 0f b0 51 40       	lock cmpxchg %dl,0x40(%rcx)
   11137:	0f ae e8             	lfence 
   1113a:	75 06                	jne    11142 <_ZN4core3ptr61drop_in_place$LT$std..sys_common..mutex..StaticMutexGuard$GT$17he0af9d330142f884E+0x22>
   1113c:	eb 11                	jmp    1114f <_ZN4core3ptr61drop_in_place$LT$std..sys_common..mutex..StaticMutexGuard$GT$17he0af9d330142f884E+0x2f>
   1113e:	66 90                	xchg   %ax,%ax
   11140:	f3 90                	pause  
   11142:	0f b6 41 40          	movzbl 0x40(%rcx),%eax
   11146:	0f ae e8             	lfence 
   11149:	84 c0                	test   %al,%al
   1114b:	75 f3                	jne    11140 <_ZN4core3ptr61drop_in_place$LT$std..sys_common..mutex..StaticMutexGuard$GT$17he0af9d330142f884E+0x20>
   1114d:	eb e1                	jmp    11130 <_ZN4core3ptr61drop_in_place$LT$std..sys_common..mutex..StaticMutexGuard$GT$17he0af9d330142f884E+0x10>
   1114f:	48 89 4c 24 08       	mov    %rcx,0x8(%rsp)
   11154:	48 83 79 18 02       	cmpq   $0x2,0x18(%rcx)
   11159:	0f ae e8             	lfence 
   1115c:	75 19                	jne    11177 <_ZN4core3ptr61drop_in_place$LT$std..sys_common..mutex..StaticMutexGuard$GT$17he0af9d330142f884E+0x57>
   1115e:	48 8d 41 08          	lea    0x8(%rcx),%rax
   11162:	48 c7 41 18 00 00 00 	movq   $0x0,0x18(%rcx)
   11169:	00 
   1116a:	48 89 01             	mov    %rax,(%rcx)
   1116d:	48 89 41 08          	mov    %rax,0x8(%rcx)
   11171:	48 89 41 10          	mov    %rax,0x10(%rcx)
   11175:	eb 68                	jmp    111df <_ZN4core3ptr61drop_in_place$LT$std..sys_common..mutex..StaticMutexGuard$GT$17he0af9d330142f884E+0xbf>
   11177:	48 8b 01             	mov    (%rcx),%rax
   1117a:	0f ae e8             	lfence 
   1117d:	48 8b 10             	mov    (%rax),%rdx
   11180:	0f ae e8             	lfence 
   11183:	48 39 c2             	cmp    %rax,%rdx
   11186:	74 57                	je     111df <_ZN4core3ptr61drop_in_place$LT$std..sys_common..mutex..StaticMutexGuard$GT$17he0af9d330142f884E+0xbf>
   11188:	48 8b 32             	mov    (%rdx),%rsi
   1118b:	0f ae e8             	lfence 
   1118e:	48 89 30             	mov    %rsi,(%rax)
   11191:	48 8b 01             	mov    (%rcx),%rax
   11194:	48 89 46 08          	mov    %rax,0x8(%rsi)
   11198:	48 c7 02 08 00 00 00 	movq   $0x8,(%rdx)
   1119f:	48 c7 42 08 08 00 00 	movq   $0x8,0x8(%rdx)
   111a6:	00 
   111a7:	83 7a 10 01          	cmpl   $0x1,0x10(%rdx)
   111ab:	0f ae e8             	lfence 
   111ae:	0f 85 0d 01 00 00    	jne    112c1 <_ZN4core3ptr61drop_in_place$LT$std..sys_common..mutex..StaticMutexGuard$GT$17he0af9d330142f884E+0x1a1>
   111b4:	b1 01                	mov    $0x1,%cl
   111b6:	66 2e 0f 1f 84 00 00 	nopw   %cs:0x0(%rax,%rax,1)
   111bd:	00 00 00 
   111c0:	31 c0                	xor    %eax,%eax
   111c2:	f0 0f b0 4a 28       	lock cmpxchg %cl,0x28(%rdx)
   111c7:	0f ae e8             	lfence 
   111ca:	75 06                	jne    111d2 <_ZN4core3ptr61drop_in_place$LT$std..sys_common..mutex..StaticMutexGuard$GT$17he0af9d330142f884E+0xb2>
   111cc:	eb 5e                	jmp    1122c <_ZN4core3ptr61drop_in_place$LT$std..sys_common..mutex..StaticMutexGuard$GT$17he0af9d330142f884E+0x10c>
   111ce:	66 90                	xchg   %ax,%ax
   111d0:	f3 90                	pause  
   111d2:	0f b6 42 28          	movzbl 0x28(%rdx),%eax
   111d6:	0f ae e8             	lfence 
   111d9:	84 c0                	test   %al,%al
   111db:	75 f3                	jne    111d0 <_ZN4core3ptr61drop_in_place$LT$std..sys_common..mutex..StaticMutexGuard$GT$17he0af9d330142f884E+0xb0>
   111dd:	eb e1                	jmp    111c0 <_ZN4core3ptr61drop_in_place$LT$std..sys_common..mutex..StaticMutexGuard$GT$17he0af9d330142f884E+0xa0>
   111df:	48 39 40 08          	cmp    %rax,0x8(%rax)
   111e3:	0f ae e8             	lfence 
   111e6:	0f 85 96 00 00 00    	jne    11282 <_ZN4core3ptr61drop_in_place$LT$std..sys_common..mutex..StaticMutexGuard$GT$17he0af9d330142f884E+0x162>
   111ec:	48 89 4c 24 18       	mov    %rcx,0x18(%rsp)
   111f1:	48 c7 44 24 10 01 00 	movq   $0x1,0x10(%rsp)
   111f8:	00 00 
   111fa:	c6 41 38 00          	movb   $0x0,0x38(%rcx)
   111fe:	c6 41 40 00          	movb   $0x0,0x40(%rcx)
   11202:	48 8b 44 24 10       	mov    0x10(%rsp),%rax
   11207:	0f ae e8             	lfence 
   1120a:	48 83 f8 01          	cmp    $0x1,%rax
   1120e:	74 11                	je     11221 <_ZN4core3ptr61drop_in_place$LT$std..sys_common..mutex..StaticMutexGuard$GT$17he0af9d330142f884E+0x101>
   11210:	48 85 c0             	test   %rax,%rax
   11213:	74 58                	je     1126d <_ZN4core3ptr61drop_in_place$LT$std..sys_common..mutex..StaticMutexGuard$GT$17he0af9d330142f884E+0x14d>
   11215:	48 8b 44 24 18       	mov    0x18(%rsp),%rax
   1121a:	0f ae e8             	lfence 
   1121d:	c6 40 40 00          	movb   $0x0,0x40(%rax)
   11221:	48 83 c4 40          	add    $0x40,%rsp
   11225:	5b                   	pop    %rbx
   11226:	58                   	pop    %rax
   11227:	0f ae e8             	lfence 
   1122a:	ff e0                	jmpq   *%rax
   1122c:	48 8b 42 18          	mov    0x18(%rdx),%rax
   11230:	c6 42 20 01          	movb   $0x1,0x20(%rdx)
   11234:	48 8b 4c 24 08       	mov    0x8(%rsp),%rcx
   11239:	48 89 4c 24 18       	mov    %rcx,0x18(%rsp)
   1123e:	48 c7 44 24 20 00 00 	movq   $0x0,0x20(%rsp)
   11245:	00 00 
   11247:	48 89 44 24 28       	mov    %rax,0x28(%rsp)
   1124c:	48 c7 44 24 10 00 00 	movq   $0x0,0x10(%rsp)
   11253:	00 00 
   11255:	c6 42 28 00          	movb   $0x0,0x28(%rdx)
   11259:	83 7c 24 10 01       	cmpl   $0x1,0x10(%rsp)
   1125e:	0f ae e8             	lfence 
   11261:	75 0a                	jne    1126d <_ZN4core3ptr61drop_in_place$LT$std..sys_common..mutex..StaticMutexGuard$GT$17he0af9d330142f884E+0x14d>
   11263:	48 8b 4c 24 18       	mov    0x18(%rsp),%rcx
   11268:	0f ae e8             	lfence 
   1126b:	eb 8d                	jmp    111fa <_ZN4core3ptr61drop_in_place$LT$std..sys_common..mutex..StaticMutexGuard$GT$17he0af9d330142f884E+0xda>
   1126d:	48 8d 7c 24 18       	lea    0x18(%rsp),%rdi
   11272:	e8 79 ee ff ff       	callq  100f0 <_ZN4core3ptr124drop_in_place$LT$std..sys..sgx..waitqueue..WaitGuard$LT$core..option..Option$LT$core..num..nonzero..NonZeroUsize$GT$$GT$$GT$17h627b1f298d883cd8E>
   11277:	48 83 c4 40          	add    $0x40,%rsp
   1127b:	5b                   	pop    %rbx
   1127c:	58                   	pop    %rax
   1127d:	0f ae e8             	lfence 
   11280:	ff e0                	jmpq   *%rax
   11282:	48 8d 05 6f 36 02 00 	lea    0x2366f(%rip),%rax        # 348f8 <_ZN9libunwind13DwarfFDECacheINS_17LocalAddressSpaceEE10_bufferEndE+0x1290>
   11289:	48 89 44 24 10       	mov    %rax,0x10(%rsp)
   1128e:	48 c7 44 24 18 01 00 	movq   $0x1,0x18(%rsp)
   11295:	00 00 
   11297:	48 c7 44 24 20 00 00 	movq   $0x0,0x20(%rsp)
   1129e:	00 00 
   112a0:	48 8d 05 01 3d ff ff 	lea    -0xc2ff(%rip),%rax        # 4fa8 <EH_FRM_LEN+0x368>
   112a7:	48 89 44 24 30       	mov    %rax,0x30(%rsp)
   112ac:	48 c7 44 24 38 00 00 	movq   $0x0,0x38(%rsp)
   112b3:	00 00 
   112b5:	48 8d 7c 24 10       	lea    0x10(%rsp),%rdi
   112ba:	e8 41 a2 00 00       	callq  1b500 <_ZN3std10sys_common4util5abort17h9acf05c9cc235988E>
   112bf:	eb 18                	jmp    112d9 <_ZN4core3ptr61drop_in_place$LT$std..sys_common..mutex..StaticMutexGuard$GT$17he0af9d330142f884E+0x1b9>
   112c1:	48 8d 3d 48 3e ff ff 	lea    -0xc1b8(%rip),%rdi        # 5110 <EH_FRM_LEN+0x4d0>
   112c8:	48 8d 15 51 36 02 00 	lea    0x23651(%rip),%rdx        # 34920 <_ZN9libunwind13DwarfFDECacheINS_17LocalAddressSpaceEE10_bufferEndE+0x12b8>
   112cf:	be 2b 00 00 00       	mov    $0x2b,%esi
   112d4:	e8 a7 c1 01 00       	callq  2d480 <_ZN4core9panicking5panic17h5ae2157404716702E>
   112d9:	0f 0b                	ud2    
   112db:	48 89 c3             	mov    %rax,%rbx
   112de:	48 8d 7c 24 08       	lea    0x8(%rsp),%rdi
   112e3:	e8 48 f0 ff ff       	callq  10330 <_ZN4core3ptr131drop_in_place$LT$std..sys..sgx..waitqueue..spin_mutex..SpinMutexGuard$LT$std..sys..sgx..waitqueue..WaitVariable$LT$bool$GT$$GT$$GT$17hbf0ae2ed76bae72bE>
   112e8:	48 89 df             	mov    %rbx,%rdi
   112eb:	e8 10 69 01 00       	callq  27c00 <_Unwind_Resume>
   112f0:	0f 0b                	ud2    
   112f2:	cc                   	int3   
   112f3:	cc                   	int3   
   112f4:	cc                   	int3   
   112f5:	cc                   	int3   
   112f6:	cc                   	int3   
   112f7:	cc                   	int3   
   112f8:	cc                   	int3   
   112f9:	cc                   	int3   
   112fa:	cc                   	int3   
   112fb:	cc                   	int3   
   112fc:	cc                   	int3   
   112fd:	cc                   	int3   
   112fe:	cc                   	int3   
   112ff:	cc                   	int3   

0000000000011300 <_ZN4core3ptr62drop_in_place$LT$alloc..borrow..Cow$LT$std..path..Path$GT$$GT$17hbbcd0b686fec81a3E>:
   11300:	0f ae e8             	lfence 
   11303:	48 83 3f 00          	cmpq   $0x0,(%rdi)
   11307:	0f ae e8             	lfence 
   1130a:	74 25                	je     11331 <_ZN4core3ptr62drop_in_place$LT$alloc..borrow..Cow$LT$std..path..Path$GT$$GT$17hbbcd0b686fec81a3E+0x31>
   1130c:	48 89 f8             	mov    %rdi,%rax
   1130f:	48 8b 7f 08          	mov    0x8(%rdi),%rdi
   11313:	0f ae e8             	lfence 
   11316:	48 85 ff             	test   %rdi,%rdi
   11319:	74 16                	je     11331 <_ZN4core3ptr62drop_in_place$LT$alloc..borrow..Cow$LT$std..path..Path$GT$$GT$17hbbcd0b686fec81a3E+0x31>
   1131b:	48 8b 70 10          	mov    0x10(%rax),%rsi
   1131f:	0f ae e8             	lfence 
   11322:	48 85 f6             	test   %rsi,%rsi
   11325:	74 0a                	je     11331 <_ZN4core3ptr62drop_in_place$LT$alloc..borrow..Cow$LT$std..path..Path$GT$$GT$17hbbcd0b686fec81a3E+0x31>
   11327:	ba 01 00 00 00       	mov    $0x1,%edx
   1132c:	e9 4f d9 ff ff       	jmpq   ec80 <__rust_dealloc>
   11331:	58                   	pop    %rax
   11332:	0f ae e8             	lfence 
   11335:	ff e0                	jmpq   *%rax
   11337:	cc                   	int3   
   11338:	cc                   	int3   
   11339:	cc                   	int3   
   1133a:	cc                   	int3   
   1133b:	cc                   	int3   
   1133c:	cc                   	int3   
   1133d:	cc                   	int3   
   1133e:	cc                   	int3   
   1133f:	cc                   	int3   

0000000000011340 <_ZN4core3ptr62drop_in_place$LT$std..sync..mpsc..Receiver$LT$$LP$$RP$$GT$$GT$17hb191808e39dcf2f0E>:
   11340:	41 56                	push   %r14
   11342:	53                   	push   %rbx
   11343:	50                   	push   %rax
   11344:	48 89 fb             	mov    %rdi,%rbx
   11347:	e8 c4 85 00 00       	callq  19910 <_ZN76_$LT$std..sync..mpsc..Receiver$LT$T$GT$$u20$as$u20$core..ops..drop..Drop$GT$4drop17h1bd75845d0bc866cE>
   1134c:	48 8b 03             	mov    (%rbx),%rax
   1134f:	0f ae e8             	lfence 
   11352:	48 83 f8 02          	cmp    $0x2,%rax
   11356:	74 2e                	je     11386 <_ZN4core3ptr62drop_in_place$LT$std..sync..mpsc..Receiver$LT$$LP$$RP$$GT$$GT$17hb191808e39dcf2f0E+0x46>
   11358:	83 f8 01             	cmp    $0x1,%eax
   1135b:	74 4d                	je     113aa <_ZN4core3ptr62drop_in_place$LT$std..sync..mpsc..Receiver$LT$$LP$$RP$$GT$$GT$17hb191808e39dcf2f0E+0x6a>
   1135d:	48 85 c0             	test   %rax,%rax
   11360:	75 6c                	jne    113ce <_ZN4core3ptr62drop_in_place$LT$std..sync..mpsc..Receiver$LT$$LP$$RP$$GT$$GT$17hb191808e39dcf2f0E+0x8e>
   11362:	48 8b 43 08          	mov    0x8(%rbx),%rax
   11366:	0f ae e8             	lfence 
   11369:	f0 48 83 28 01       	lock subq $0x1,(%rax)
   1136e:	0f ae e8             	lfence 
   11371:	75 7f                	jne    113f2 <_ZN4core3ptr62drop_in_place$LT$std..sync..mpsc..Receiver$LT$$LP$$RP$$GT$$GT$17hb191808e39dcf2f0E+0xb2>
   11373:	48 83 c3 08          	add    $0x8,%rbx
   11377:	48 89 df             	mov    %rbx,%rdi
   1137a:	48 83 c4 08          	add    $0x8,%rsp
   1137e:	5b                   	pop    %rbx
   1137f:	41 5e                	pop    %r14
   11381:	e9 ba 14 00 00       	jmpq   12840 <_ZN5alloc4sync12Arc$LT$T$GT$9drop_slow17h33244e520422c953E>
   11386:	48 8b 43 08          	mov    0x8(%rbx),%rax
   1138a:	0f ae e8             	lfence 
   1138d:	f0 48 83 28 01       	lock subq $0x1,(%rax)
   11392:	0f ae e8             	lfence 
   11395:	75 5b                	jne    113f2 <_ZN4core3ptr62drop_in_place$LT$std..sync..mpsc..Receiver$LT$$LP$$RP$$GT$$GT$17hb191808e39dcf2f0E+0xb2>
   11397:	48 83 c3 08          	add    $0x8,%rbx
   1139b:	48 89 df             	mov    %rbx,%rdi
   1139e:	48 83 c4 08          	add    $0x8,%rsp
   113a2:	5b                   	pop    %rbx
   113a3:	41 5e                	pop    %r14
   113a5:	e9 16 16 00 00       	jmpq   129c0 <_ZN5alloc4sync12Arc$LT$T$GT$9drop_slow17h7843c6f1e66c2938E>
   113aa:	48 8b 43 08          	mov    0x8(%rbx),%rax
   113ae:	0f ae e8             	lfence 
   113b1:	f0 48 83 28 01       	lock subq $0x1,(%rax)
   113b6:	0f ae e8             	lfence 
   113b9:	75 37                	jne    113f2 <_ZN4core3ptr62drop_in_place$LT$std..sync..mpsc..Receiver$LT$$LP$$RP$$GT$$GT$17hb191808e39dcf2f0E+0xb2>
   113bb:	48 83 c3 08          	add    $0x8,%rbx
   113bf:	48 89 df             	mov    %rbx,%rdi
   113c2:	48 83 c4 08          	add    $0x8,%rsp
   113c6:	5b                   	pop    %rbx
   113c7:	41 5e                	pop    %r14
   113c9:	e9 82 17 00 00       	jmpq   12b50 <_ZN5alloc4sync12Arc$LT$T$GT$9drop_slow17h9ac76426e5e1f36cE>
   113ce:	48 8b 43 08          	mov    0x8(%rbx),%rax
   113d2:	0f ae e8             	lfence 
   113d5:	f0 48 83 28 01       	lock subq $0x1,(%rax)
   113da:	0f ae e8             	lfence 
   113dd:	75 13                	jne    113f2 <_ZN4core3ptr62drop_in_place$LT$std..sync..mpsc..Receiver$LT$$LP$$RP$$GT$$GT$17hb191808e39dcf2f0E+0xb2>
   113df:	48 83 c3 08          	add    $0x8,%rbx
   113e3:	48 89 df             	mov    %rbx,%rdi
   113e6:	48 83 c4 08          	add    $0x8,%rsp
   113ea:	5b                   	pop    %rbx
   113eb:	41 5e                	pop    %r14
   113ed:	e9 5e 19 00 00       	jmpq   12d50 <_ZN5alloc4sync12Arc$LT$T$GT$9drop_slow17ha547a3409d4a9fdaE>
   113f2:	48 83 c4 08          	add    $0x8,%rsp
   113f6:	5b                   	pop    %rbx
   113f7:	41 5e                	pop    %r14
   113f9:	58                   	pop    %rax
   113fa:	0f ae e8             	lfence 
   113fd:	ff e0                	jmpq   *%rax
   113ff:	49 89 c6             	mov    %rax,%r14
   11402:	48 89 df             	mov    %rbx,%rdi
   11405:	e8 e6 04 00 00       	callq  118f0 <_ZN4core3ptr90drop_in_place$LT$core..cell..UnsafeCell$LT$std..sync..mpsc..Flavor$LT$$LP$$RP$$GT$$GT$$GT$17hec50c233472dcb45E>
   1140a:	4c 89 f7             	mov    %r14,%rdi
   1140d:	e8 ee 67 01 00       	callq  27c00 <_Unwind_Resume>
   11412:	0f 0b                	ud2    
   11414:	cc                   	int3   
   11415:	cc                   	int3   
   11416:	cc                   	int3   
   11417:	cc                   	int3   
   11418:	cc                   	int3   
   11419:	cc                   	int3   
   1141a:	cc                   	int3   
   1141b:	cc                   	int3   
   1141c:	cc                   	int3   
   1141d:	cc                   	int3   
   1141e:	cc                   	int3   
   1141f:	cc                   	int3   

0000000000011420 <_ZN4core3ptr64drop_in_place$LT$std..backtrace_rs..print..BacktraceFrameFmt$GT$17h8135d6a9781cb038E>:
   11420:	0f ae e8             	lfence 
   11423:	48 8b 07             	mov    (%rdi),%rax
   11426:	0f ae e8             	lfence 
   11429:	48 83 40 08 01       	addq   $0x1,0x8(%rax)
   1142e:	58                   	pop    %rax
   1142f:	0f ae e8             	lfence 
   11432:	ff e0                	jmpq   *%rax
   11434:	cc                   	int3   
   11435:	cc                   	int3   
   11436:	cc                   	int3   
   11437:	cc                   	int3   
   11438:	cc                   	int3   
   11439:	cc                   	int3   
   1143a:	cc                   	int3   
   1143b:	cc                   	int3   
   1143c:	cc                   	int3   
   1143d:	cc                   	int3   
   1143e:	cc                   	int3   
   1143f:	cc                   	int3   

0000000000011440 <_ZN4core3ptr68drop_in_place$LT$core..option..Option$LT$std..thread..Thread$GT$$GT$17ha1389fd6b5aa60a6E>:
   11440:	0f ae e8             	lfence 
   11443:	48 8b 07             	mov    (%rdi),%rax
   11446:	0f ae e8             	lfence 
   11449:	48 85 c0             	test   %rax,%rax
   1144c:	74 12                	je     11460 <_ZN4core3ptr68drop_in_place$LT$core..option..Option$LT$std..thread..Thread$GT$$GT$17ha1389fd6b5aa60a6E+0x20>
   1144e:	f0 48 83 28 01       	lock subq $0x1,(%rax)
   11453:	0f ae e8             	lfence 
   11456:	75 08                	jne    11460 <_ZN4core3ptr68drop_in_place$LT$core..option..Option$LT$std..thread..Thread$GT$$GT$17ha1389fd6b5aa60a6E+0x20>
   11458:	48 8b 3f             	mov    (%rdi),%rdi
   1145b:	e9 50 13 00 00       	jmpq   127b0 <_ZN5alloc4sync12Arc$LT$T$GT$9drop_slow17h2f83396623d2cfb9E>
   11460:	58                   	pop    %rax
   11461:	0f ae e8             	lfence 
   11464:	ff e0                	jmpq   *%rax
   11466:	cc                   	int3   
   11467:	cc                   	int3   
   11468:	cc                   	int3   
   11469:	cc                   	int3   
   1146a:	cc                   	int3   
   1146b:	cc                   	int3   
   1146c:	cc                   	int3   
   1146d:	cc                   	int3   
   1146e:	cc                   	int3   
   1146f:	cc                   	int3   

0000000000011470 <_ZN4core3ptr69drop_in_place$LT$std..sync..mpsc..stream..Message$LT$$LP$$RP$$GT$$GT$17ha17f5c0277fd1421E>:
   11470:	41 56                	push   %r14
   11472:	53                   	push   %rbx
   11473:	50                   	push   %rax
   11474:	0f ae e8             	lfence 
   11477:	83 3f 04             	cmpl   $0x4,(%rdi)
   1147a:	0f ae e8             	lfence 
   1147d:	75 0d                	jne    1148c <_ZN4core3ptr69drop_in_place$LT$std..sync..mpsc..stream..Message$LT$$LP$$RP$$GT$$GT$17ha17f5c0277fd1421E+0x1c>
   1147f:	48 83 c4 08          	add    $0x8,%rsp
   11483:	5b                   	pop    %rbx
   11484:	41 5e                	pop    %r14
   11486:	58                   	pop    %rax
   11487:	0f ae e8             	lfence 
   1148a:	ff e0                	jmpq   *%rax
   1148c:	48 89 fb             	mov    %rdi,%rbx
   1148f:	e8 7c 84 00 00       	callq  19910 <_ZN76_$LT$std..sync..mpsc..Receiver$LT$T$GT$$u20$as$u20$core..ops..drop..Drop$GT$4drop17h1bd75845d0bc866cE>
   11494:	48 89 df             	mov    %rbx,%rdi
   11497:	48 83 c4 08          	add    $0x8,%rsp
   1149b:	5b                   	pop    %rbx
   1149c:	41 5e                	pop    %r14
   1149e:	e9 4d 04 00 00       	jmpq   118f0 <_ZN4core3ptr90drop_in_place$LT$core..cell..UnsafeCell$LT$std..sync..mpsc..Flavor$LT$$LP$$RP$$GT$$GT$$GT$17hec50c233472dcb45E>
   114a3:	49 89 c6             	mov    %rax,%r14
   114a6:	48 89 df             	mov    %rbx,%rdi
   114a9:	e8 42 04 00 00       	callq  118f0 <_ZN4core3ptr90drop_in_place$LT$core..cell..UnsafeCell$LT$std..sync..mpsc..Flavor$LT$$LP$$RP$$GT$$GT$$GT$17hec50c233472dcb45E>
   114ae:	4c 89 f7             	mov    %r14,%rdi
   114b1:	e8 4a 67 01 00       	callq  27c00 <_Unwind_Resume>
   114b6:	0f 0b                	ud2    
   114b8:	cc                   	int3   
   114b9:	cc                   	int3   
   114ba:	cc                   	int3   
   114bb:	cc                   	int3   
   114bc:	cc                   	int3   
   114bd:	cc                   	int3   
   114be:	cc                   	int3   
   114bf:	cc                   	int3   

00000000000114c0 <_ZN4core3ptr70drop_in_place$LT$alloc..vec..Vec$LT$std..ffi..os_str..OsString$GT$$GT$17h528d3e8d3f7e5a44E>:
   114c0:	41 57                	push   %r15
   114c2:	41 56                	push   %r14
   114c4:	53                   	push   %rbx
   114c5:	0f ae e8             	lfence 
   114c8:	49 89 fe             	mov    %rdi,%r14
   114cb:	48 8b 1f             	mov    (%rdi),%rbx
   114ce:	0f ae e8             	lfence 
   114d1:	48 8b 47 10          	mov    0x10(%rdi),%rax
   114d5:	0f ae e8             	lfence 
   114d8:	48 85 c0             	test   %rax,%rax
   114db:	74 45                	je     11522 <_ZN4core3ptr70drop_in_place$LT$alloc..vec..Vec$LT$std..ffi..os_str..OsString$GT$$GT$17h528d3e8d3f7e5a44E+0x62>
   114dd:	48 8d 04 40          	lea    (%rax,%rax,2),%rax
   114e1:	4c 8d 3c c3          	lea    (%rbx,%rax,8),%r15
   114e5:	eb 12                	jmp    114f9 <_ZN4core3ptr70drop_in_place$LT$alloc..vec..Vec$LT$std..ffi..os_str..OsString$GT$$GT$17h528d3e8d3f7e5a44E+0x39>
   114e7:	66 0f 1f 84 00 00 00 	nopw   0x0(%rax,%rax,1)
   114ee:	00 00 
   114f0:	48 83 c3 18          	add    $0x18,%rbx
   114f4:	4c 39 fb             	cmp    %r15,%rbx
   114f7:	74 23                	je     1151c <_ZN4core3ptr70drop_in_place$LT$alloc..vec..Vec$LT$std..ffi..os_str..OsString$GT$$GT$17h528d3e8d3f7e5a44E+0x5c>
   114f9:	48 8b 3b             	mov    (%rbx),%rdi
   114fc:	0f ae e8             	lfence 
   114ff:	48 85 ff             	test   %rdi,%rdi
   11502:	74 ec                	je     114f0 <_ZN4core3ptr70drop_in_place$LT$alloc..vec..Vec$LT$std..ffi..os_str..OsString$GT$$GT$17h528d3e8d3f7e5a44E+0x30>
   11504:	48 8b 73 08          	mov    0x8(%rbx),%rsi
   11508:	0f ae e8             	lfence 
   1150b:	48 85 f6             	test   %rsi,%rsi
   1150e:	74 e0                	je     114f0 <_ZN4core3ptr70drop_in_place$LT$alloc..vec..Vec$LT$std..ffi..os_str..OsString$GT$$GT$17h528d3e8d3f7e5a44E+0x30>
   11510:	ba 01 00 00 00       	mov    $0x1,%edx
   11515:	e8 66 d7 ff ff       	callq  ec80 <__rust_dealloc>
   1151a:	eb d4                	jmp    114f0 <_ZN4core3ptr70drop_in_place$LT$alloc..vec..Vec$LT$std..ffi..os_str..OsString$GT$$GT$17h528d3e8d3f7e5a44E+0x30>
   1151c:	49 8b 1e             	mov    (%r14),%rbx
   1151f:	0f ae e8             	lfence 
   11522:	49 8b 46 08          	mov    0x8(%r14),%rax
   11526:	0f ae e8             	lfence 
   11529:	48 85 c0             	test   %rax,%rax
   1152c:	74 24                	je     11552 <_ZN4core3ptr70drop_in_place$LT$alloc..vec..Vec$LT$std..ffi..os_str..OsString$GT$$GT$17h528d3e8d3f7e5a44E+0x92>
   1152e:	48 85 db             	test   %rbx,%rbx
   11531:	74 1f                	je     11552 <_ZN4core3ptr70drop_in_place$LT$alloc..vec..Vec$LT$std..ffi..os_str..OsString$GT$$GT$17h528d3e8d3f7e5a44E+0x92>
   11533:	48 c1 e0 03          	shl    $0x3,%rax
   11537:	48 8d 34 40          	lea    (%rax,%rax,2),%rsi
   1153b:	48 85 f6             	test   %rsi,%rsi
   1153e:	74 12                	je     11552 <_ZN4core3ptr70drop_in_place$LT$alloc..vec..Vec$LT$std..ffi..os_str..OsString$GT$$GT$17h528d3e8d3f7e5a44E+0x92>
   11540:	ba 08 00 00 00       	mov    $0x8,%edx
   11545:	48 89 df             	mov    %rbx,%rdi
   11548:	5b                   	pop    %rbx
   11549:	41 5e                	pop    %r14
   1154b:	41 5f                	pop    %r15
   1154d:	e9 2e d7 ff ff       	jmpq   ec80 <__rust_dealloc>
   11552:	5b                   	pop    %rbx
   11553:	41 5e                	pop    %r14
   11555:	41 5f                	pop    %r15
   11557:	58                   	pop    %rax
   11558:	0f ae e8             	lfence 
   1155b:	ff e0                	jmpq   *%rax
   1155d:	cc                   	int3   
   1155e:	cc                   	int3   
   1155f:	cc                   	int3   

0000000000011560 <_ZN4core3ptr70drop_in_place$LT$std..panicking..begin_panic_handler..PanicPayload$GT$17hc7cb557e1ec2220bE>:
   11560:	0f ae e8             	lfence 
   11563:	48 89 f8             	mov    %rdi,%rax
   11566:	48 8b 7f 08          	mov    0x8(%rdi),%rdi
   1156a:	0f ae e8             	lfence 
   1156d:	48 85 ff             	test   %rdi,%rdi
   11570:	74 16                	je     11588 <_ZN4core3ptr70drop_in_place$LT$std..panicking..begin_panic_handler..PanicPayload$GT$17hc7cb557e1ec2220bE+0x28>
   11572:	48 8b 70 10          	mov    0x10(%rax),%rsi
   11576:	0f ae e8             	lfence 
   11579:	48 85 f6             	test   %rsi,%rsi
   1157c:	74 0a                	je     11588 <_ZN4core3ptr70drop_in_place$LT$std..panicking..begin_panic_handler..PanicPayload$GT$17hc7cb557e1ec2220bE+0x28>
   1157e:	ba 01 00 00 00       	mov    $0x1,%edx
   11583:	e9 f8 d6 ff ff       	jmpq   ec80 <__rust_dealloc>
   11588:	58                   	pop    %rax
   11589:	0f ae e8             	lfence 
   1158c:	ff e0                	jmpq   *%rax
   1158e:	cc                   	int3   
   1158f:	cc                   	int3   

0000000000011590 <_ZN4core3ptr71drop_in_place$LT$std..sync..mpsc..mpsc_queue..Queue$LT$$LP$$RP$$GT$$GT$17h17dc3909b2674fbaE>:
   11590:	53                   	push   %rbx
   11591:	0f ae e8             	lfence 
   11594:	48 8b 7f 08          	mov    0x8(%rdi),%rdi
   11598:	0f ae e8             	lfence 
   1159b:	48 85 ff             	test   %rdi,%rdi
   1159e:	74 1a                	je     115ba <_ZN4core3ptr71drop_in_place$LT$std..sync..mpsc..mpsc_queue..Queue$LT$$LP$$RP$$GT$$GT$17h17dc3909b2674fbaE+0x2a>
   115a0:	48 8b 1f             	mov    (%rdi),%rbx
   115a3:	be 10 00 00 00       	mov    $0x10,%esi
   115a8:	ba 08 00 00 00       	mov    $0x8,%edx
   115ad:	e8 ce d6 ff ff       	callq  ec80 <__rust_dealloc>
   115b2:	48 89 df             	mov    %rbx,%rdi
   115b5:	48 85 db             	test   %rbx,%rbx
   115b8:	75 e6                	jne    115a0 <_ZN4core3ptr71drop_in_place$LT$std..sync..mpsc..mpsc_queue..Queue$LT$$LP$$RP$$GT$$GT$17h17dc3909b2674fbaE+0x10>
   115ba:	5b                   	pop    %rbx
   115bb:	58                   	pop    %rax
   115bc:	0f ae e8             	lfence 
   115bf:	ff e0                	jmpq   *%rax
   115c1:	cc                   	int3   
   115c2:	cc                   	int3   
   115c3:	cc                   	int3   
   115c4:	cc                   	int3   
   115c5:	cc                   	int3   
   115c6:	cc                   	int3   
   115c7:	cc                   	int3   
   115c8:	cc                   	int3   
   115c9:	cc                   	int3   
   115ca:	cc                   	int3   
   115cb:	cc                   	int3   
   115cc:	cc                   	int3   
   115cd:	cc                   	int3   
   115ce:	cc                   	int3   
   115cf:	cc                   	int3   

00000000000115d0 <_ZN4core3ptr73drop_in_place$LT$core..option..Option$LT$std..ffi..c_str..CString$GT$$GT$17h6e3db9dc56526bd6E>:
   115d0:	0f ae e8             	lfence 
   115d3:	48 8b 07             	mov    (%rdi),%rax
   115d6:	0f ae e8             	lfence 
   115d9:	48 85 c0             	test   %rax,%rax
   115dc:	74 1c                	je     115fa <_ZN4core3ptr73drop_in_place$LT$core..option..Option$LT$std..ffi..c_str..CString$GT$$GT$17h6e3db9dc56526bd6E+0x2a>
   115de:	c6 00 00             	movb   $0x0,(%rax)
   115e1:	48 8b 77 08          	mov    0x8(%rdi),%rsi
   115e5:	0f ae e8             	lfence 
   115e8:	48 85 f6             	test   %rsi,%rsi
   115eb:	74 0d                	je     115fa <_ZN4core3ptr73drop_in_place$LT$core..option..Option$LT$std..ffi..c_str..CString$GT$$GT$17h6e3db9dc56526bd6E+0x2a>
   115ed:	48 8b 3f             	mov    (%rdi),%rdi
   115f0:	ba 01 00 00 00       	mov    $0x1,%edx
   115f5:	e9 86 d6 ff ff       	jmpq   ec80 <__rust_dealloc>
   115fa:	58                   	pop    %rax
   115fb:	0f ae e8             	lfence 
   115fe:	ff e0                	jmpq   *%rax

0000000000011600 <_ZN4core3ptr74drop_in_place$LT$alloc..boxed..Box$LT$std..sys..sgx..abi..tls..Tls$GT$$GT$17had41698cb2b1539dE>:
   11600:	0f ae e8             	lfence 
   11603:	48 8b 3f             	mov    (%rdi),%rdi
   11606:	be 00 04 00 00       	mov    $0x400,%esi
   1160b:	ba 08 00 00 00       	mov    $0x8,%edx
   11610:	e9 6b d6 ff ff       	jmpq   ec80 <__rust_dealloc>
   11615:	cc                   	int3   
   11616:	cc                   	int3   
   11617:	cc                   	int3   
   11618:	cc                   	int3   
   11619:	cc                   	int3   
   1161a:	cc                   	int3   
   1161b:	cc                   	int3   
   1161c:	cc                   	int3   
   1161d:	cc                   	int3   
   1161e:	cc                   	int3   
   1161f:	cc                   	int3   

0000000000011620 <_ZN4core3ptr76drop_in_place$LT$core..result..Result$LT$u64$C$std..io..error..Error$GT$$GT$17h7cd5be345257e4a5E>:
   11620:	41 57                	push   %r15
   11622:	41 56                	push   %r14
   11624:	53                   	push   %rbx
   11625:	0f ae e8             	lfence 
   11628:	48 83 3f 00          	cmpq   $0x0,(%rdi)
   1162c:	0f ae e8             	lfence 
   1162f:	74 5c                	je     1168d <_ZN4core3ptr76drop_in_place$LT$core..result..Result$LT$u64$C$std..io..error..Error$GT$$GT$17h7cd5be345257e4a5E+0x6d>
   11631:	48 89 fb             	mov    %rdi,%rbx
   11634:	80 7f 08 03          	cmpb   $0x3,0x8(%rdi)
   11638:	0f ae e8             	lfence 
   1163b:	75 50                	jne    1168d <_ZN4core3ptr76drop_in_place$LT$core..result..Result$LT$u64$C$std..io..error..Error$GT$$GT$17h7cd5be345257e4a5E+0x6d>
   1163d:	4c 8b 7b 10          	mov    0x10(%rbx),%r15
   11641:	0f ae e8             	lfence 
   11644:	49 8b 3f             	mov    (%r15),%rdi
   11647:	49 8b 47 08          	mov    0x8(%r15),%rax
   1164b:	0f ae e8             	lfence 
   1164e:	4c 8b 18             	mov    (%rax),%r11
